

Microchip MPLAB XC8 Assembler V2.30 build 20200825195618 
                                                                                               Tue Jun 21 20:02:53 2022

Microchip MPLAB XC8 C Compiler v2.30 (Free license) build 20200825195618 Og1 
     1                           	processor	16F877A
     2                           	pagewidth 120
     3                           	opt	flic
     4                           	psect	strings,global,class=STRING,delta=2,noexec
     5                           	psect	cinit,global,class=CODE,merge=1,delta=2
     6                           	psect	bssCOMMON,global,class=COMMON,space=1,delta=1,noexec
     7                           	psect	bssBANK0,global,class=BANK0,space=1,delta=1,noexec
     8                           	psect	bssBANK1,global,class=BANK1,space=1,delta=1,noexec
     9                           	psect	clrtext,global,class=CODE,delta=2
    10                           	psect	cstackCOMMON,global,class=COMMON,space=1,delta=1,noexec
    11                           	psect	cstackBANK0,global,class=BANK0,space=1,delta=1,noexec
    12                           	psect	maintext,global,class=CODE,split=1,delta=2
    13                           	psect	text1,local,class=CODE,merge=1,delta=2
    14                           	psect	text2,local,class=CODE,merge=1,delta=2
    15                           	psect	text3,local,class=CODE,merge=1,delta=2,group=1
    16                           	psect	text4,local,class=CODE,merge=1,delta=2
    17                           	psect	text5,local,class=CODE,merge=1,delta=2
    18                           	psect	text6,local,class=CODE,merge=1,delta=2
    19                           	psect	text7,local,class=CODE,merge=1,delta=2
    20                           	psect	text8,local,class=CODE,merge=1,delta=2
    21                           	psect	text9,local,class=CODE,merge=1,delta=2
    22                           	psect	text10,local,class=CODE,merge=1,delta=2
    23                           	psect	text11,local,class=CODE,merge=1,delta=2
    24                           	psect	text12,local,class=CODE,merge=1,delta=2
    25                           	psect	text13,local,class=CODE,merge=1,delta=2
    26                           	psect	intentry,global,class=CODE,delta=2
    27                           	psect	config,global,abs,ovrld,class=CONFIG,space=4,delta=2,noexec
    28                           	psect	maintext_split_1,global,class=CODE,split=1,delta=2
    29                           	dabs	1,0x7E,2
    30  0000                     
    31                           ; Version 2.20
    32                           ; Generated 12/02/2020 GMT
    33                           ; 
    34                           ; Copyright © 2020, Microchip Technology Inc. and its subsidiaries ("Microchip")
    35                           ; All rights reserved.
    36                           ; 
    37                           ; This software is developed by Microchip Technology Inc. and its subsidiaries ("Microch
      +                          ip").
    38                           ; 
    39                           ; Redistribution and use in source and binary forms, with or without modification, are
    40                           ; permitted provided that the following conditions are met:
    41                           ; 
    42                           ;     1. Redistributions of source code must retain the above copyright notice, this lis
      +                          t of
    43                           ;        conditions and the following disclaimer.
    44                           ; 
    45                           ;     2. Redistributions in binary form must reproduce the above copyright notice, this 
      +                          list
    46                           ;        of conditions and the following disclaimer in the documentation and/or other
    47                           ;        materials provided with the distribution.
    48                           ; 
    49                           ;     3. Microchip's name may not be used to endorse or promote products derived from th
      +                          is
    50                           ;        software without specific prior written permission.
    51                           ; 
    52                           ; THIS SOFTWARE IS PROVIDED BY MICROCHIP "AS IS" AND ANY EXPRESS OR IMPLIED WARRANTIES,
    53                           ; INCLUDING, BUT NOT LIMITED TO, THE IMPLIED WARRANTIES OF MERCHANTABILITY AND FITNESS F
      +                          OR
    54                           ; PURPOSE ARE DISCLAIMED.  IN NO EVENT SHALL MICROCHIP BE LIABLE FOR ANY DIRECT, INDIREC
      +                          T,
    55                           ; INCIDENTAL, SPECIAL, EXEMPLARY, OR CONSEQUENTIAL DAMAGES (INCLUDING BUT NOT LIMITED TO
    56                           ; PROCUREMENT OF SUBSTITUTE GOODS OR SERVICES; LOSS OF USE, DATA OR PROFITS; OR BUSINESS
    57                           ; INTERRUPTION) HOWSOEVER CAUSED AND ON ANY THEORY OF LIABILITY, WHETHER IN CONTRACT, ST
      +                          RICT
    58                           ; LIABILITY, OR TORT (INCLUDING NEGLIGENCE OR OTHERWISE) ARISING IN ANY WAY OUT OF THE U
      +                          SE OF
    59                           ; THIS SOFTWARE, EVEN IF ADVISED OF THE POSSIBILITY OF SUCH DAMAGE.
    60                           ; 
    61                           ; 
    62                           ; Code-generator required, PIC16F877A Definitions
    63                           ; 
    64                           ; SFR Addresses
    65  0000                     	;# 
    66  0001                     	;# 
    67  0002                     	;# 
    68  0003                     	;# 
    69  0004                     	;# 
    70  0005                     	;# 
    71  0006                     	;# 
    72  0007                     	;# 
    73  0008                     	;# 
    74  0009                     	;# 
    75  000A                     	;# 
    76  000B                     	;# 
    77  000C                     	;# 
    78  000D                     	;# 
    79  000E                     	;# 
    80  000E                     	;# 
    81  000F                     	;# 
    82  0010                     	;# 
    83  0011                     	;# 
    84  0012                     	;# 
    85  0013                     	;# 
    86  0014                     	;# 
    87  0015                     	;# 
    88  0015                     	;# 
    89  0016                     	;# 
    90  0017                     	;# 
    91  0018                     	;# 
    92  0019                     	;# 
    93  001A                     	;# 
    94  001B                     	;# 
    95  001B                     	;# 
    96  001C                     	;# 
    97  001D                     	;# 
    98  001E                     	;# 
    99  001F                     	;# 
   100  0081                     	;# 
   101  0085                     	;# 
   102  0086                     	;# 
   103  0087                     	;# 
   104  0088                     	;# 
   105  0089                     	;# 
   106  008C                     	;# 
   107  008D                     	;# 
   108  008E                     	;# 
   109  0091                     	;# 
   110  0092                     	;# 
   111  0093                     	;# 
   112  0094                     	;# 
   113  0098                     	;# 
   114  0099                     	;# 
   115  009C                     	;# 
   116  009D                     	;# 
   117  009E                     	;# 
   118  009F                     	;# 
   119  010C                     	;# 
   120  010D                     	;# 
   121  010E                     	;# 
   122  010F                     	;# 
   123  018C                     	;# 
   124  018D                     	;# 
   125  0000                     	;# 
   126  0001                     	;# 
   127  0002                     	;# 
   128  0003                     	;# 
   129  0004                     	;# 
   130  0005                     	;# 
   131  0006                     	;# 
   132  0007                     	;# 
   133  0008                     	;# 
   134  0009                     	;# 
   135  000A                     	;# 
   136  000B                     	;# 
   137  000C                     	;# 
   138  000D                     	;# 
   139  000E                     	;# 
   140  000E                     	;# 
   141  000F                     	;# 
   142  0010                     	;# 
   143  0011                     	;# 
   144  0012                     	;# 
   145  0013                     	;# 
   146  0014                     	;# 
   147  0015                     	;# 
   148  0015                     	;# 
   149  0016                     	;# 
   150  0017                     	;# 
   151  0018                     	;# 
   152  0019                     	;# 
   153  001A                     	;# 
   154  001B                     	;# 
   155  001B                     	;# 
   156  001C                     	;# 
   157  001D                     	;# 
   158  001E                     	;# 
   159  001F                     	;# 
   160  0081                     	;# 
   161  0085                     	;# 
   162  0086                     	;# 
   163  0087                     	;# 
   164  0088                     	;# 
   165  0089                     	;# 
   166  008C                     	;# 
   167  008D                     	;# 
   168  008E                     	;# 
   169  0091                     	;# 
   170  0092                     	;# 
   171  0093                     	;# 
   172  0094                     	;# 
   173  0098                     	;# 
   174  0099                     	;# 
   175  009C                     	;# 
   176  009D                     	;# 
   177  009E                     	;# 
   178  009F                     	;# 
   179  010C                     	;# 
   180  010D                     	;# 
   181  010E                     	;# 
   182  010F                     	;# 
   183  018C                     	;# 
   184  018D                     	;# 
   185  0000                     	;# 
   186  0001                     	;# 
   187  0002                     	;# 
   188  0003                     	;# 
   189  0004                     	;# 
   190  0005                     	;# 
   191  0006                     	;# 
   192  0007                     	;# 
   193  0008                     	;# 
   194  0009                     	;# 
   195  000A                     	;# 
   196  000B                     	;# 
   197  000C                     	;# 
   198  000D                     	;# 
   199  000E                     	;# 
   200  000E                     	;# 
   201  000F                     	;# 
   202  0010                     	;# 
   203  0011                     	;# 
   204  0012                     	;# 
   205  0013                     	;# 
   206  0014                     	;# 
   207  0015                     	;# 
   208  0015                     	;# 
   209  0016                     	;# 
   210  0017                     	;# 
   211  0018                     	;# 
   212  0019                     	;# 
   213  001A                     	;# 
   214  001B                     	;# 
   215  001B                     	;# 
   216  001C                     	;# 
   217  001D                     	;# 
   218  001E                     	;# 
   219  001F                     	;# 
   220  0081                     	;# 
   221  0085                     	;# 
   222  0086                     	;# 
   223  0087                     	;# 
   224  0088                     	;# 
   225  0089                     	;# 
   226  008C                     	;# 
   227  008D                     	;# 
   228  008E                     	;# 
   229  0091                     	;# 
   230  0092                     	;# 
   231  0093                     	;# 
   232  0094                     	;# 
   233  0098                     	;# 
   234  0099                     	;# 
   235  009C                     	;# 
   236  009D                     	;# 
   237  009E                     	;# 
   238  009F                     	;# 
   239  010C                     	;# 
   240  010D                     	;# 
   241  010E                     	;# 
   242  010F                     	;# 
   243  018C                     	;# 
   244  018D                     	;# 
   245  0000                     	;# 
   246  0001                     	;# 
   247  0002                     	;# 
   248  0003                     	;# 
   249  0004                     	;# 
   250  0005                     	;# 
   251  0006                     	;# 
   252  0007                     	;# 
   253  0008                     	;# 
   254  0009                     	;# 
   255  000A                     	;# 
   256  000B                     	;# 
   257  000C                     	;# 
   258  000D                     	;# 
   259  000E                     	;# 
   260  000E                     	;# 
   261  000F                     	;# 
   262  0010                     	;# 
   263  0011                     	;# 
   264  0012                     	;# 
   265  0013                     	;# 
   266  0014                     	;# 
   267  0015                     	;# 
   268  0015                     	;# 
   269  0016                     	;# 
   270  0017                     	;# 
   271  0018                     	;# 
   272  0019                     	;# 
   273  001A                     	;# 
   274  001B                     	;# 
   275  001B                     	;# 
   276  001C                     	;# 
   277  001D                     	;# 
   278  001E                     	;# 
   279  001F                     	;# 
   280  0081                     	;# 
   281  0085                     	;# 
   282  0086                     	;# 
   283  0087                     	;# 
   284  0088                     	;# 
   285  0089                     	;# 
   286  008C                     	;# 
   287  008D                     	;# 
   288  008E                     	;# 
   289  0091                     	;# 
   290  0092                     	;# 
   291  0093                     	;# 
   292  0094                     	;# 
   293  0098                     	;# 
   294  0099                     	;# 
   295  009C                     	;# 
   296  009D                     	;# 
   297  009E                     	;# 
   298  009F                     	;# 
   299  010C                     	;# 
   300  010D                     	;# 
   301  010E                     	;# 
   302  010F                     	;# 
   303  018C                     	;# 
   304  018D                     	;# 
   305  0000                     	;# 
   306  0001                     	;# 
   307  0002                     	;# 
   308  0003                     	;# 
   309  0004                     	;# 
   310  0005                     	;# 
   311  0006                     	;# 
   312  0007                     	;# 
   313  0008                     	;# 
   314  0009                     	;# 
   315  000A                     	;# 
   316  000B                     	;# 
   317  000C                     	;# 
   318  000D                     	;# 
   319  000E                     	;# 
   320  000E                     	;# 
   321  000F                     	;# 
   322  0010                     	;# 
   323  0011                     	;# 
   324  0012                     	;# 
   325  0013                     	;# 
   326  0014                     	;# 
   327  0015                     	;# 
   328  0015                     	;# 
   329  0016                     	;# 
   330  0017                     	;# 
   331  0018                     	;# 
   332  0019                     	;# 
   333  001A                     	;# 
   334  001B                     	;# 
   335  001B                     	;# 
   336  001C                     	;# 
   337  001D                     	;# 
   338  001E                     	;# 
   339  001F                     	;# 
   340  0081                     	;# 
   341  0085                     	;# 
   342  0086                     	;# 
   343  0087                     	;# 
   344  0088                     	;# 
   345  0089                     	;# 
   346  008C                     	;# 
   347  008D                     	;# 
   348  008E                     	;# 
   349  0091                     	;# 
   350  0092                     	;# 
   351  0093                     	;# 
   352  0094                     	;# 
   353  0098                     	;# 
   354  0099                     	;# 
   355  009C                     	;# 
   356  009D                     	;# 
   357  009E                     	;# 
   358  009F                     	;# 
   359  010C                     	;# 
   360  010D                     	;# 
   361  010E                     	;# 
   362  010F                     	;# 
   363  018C                     	;# 
   364  018D                     	;# 
   365  0000                     	;# 
   366  0001                     	;# 
   367  0002                     	;# 
   368  0003                     	;# 
   369  0004                     	;# 
   370  0005                     	;# 
   371  0006                     	;# 
   372  0007                     	;# 
   373  0008                     	;# 
   374  0009                     	;# 
   375  000A                     	;# 
   376  000B                     	;# 
   377  000C                     	;# 
   378  000D                     	;# 
   379  000E                     	;# 
   380  000E                     	;# 
   381  000F                     	;# 
   382  0010                     	;# 
   383  0011                     	;# 
   384  0012                     	;# 
   385  0013                     	;# 
   386  0014                     	;# 
   387  0015                     	;# 
   388  0015                     	;# 
   389  0016                     	;# 
   390  0017                     	;# 
   391  0018                     	;# 
   392  0019                     	;# 
   393  001A                     	;# 
   394  001B                     	;# 
   395  001B                     	;# 
   396  001C                     	;# 
   397  001D                     	;# 
   398  001E                     	;# 
   399  001F                     	;# 
   400  0081                     	;# 
   401  0085                     	;# 
   402  0086                     	;# 
   403  0087                     	;# 
   404  0088                     	;# 
   405  0089                     	;# 
   406  008C                     	;# 
   407  008D                     	;# 
   408  008E                     	;# 
   409  0091                     	;# 
   410  0092                     	;# 
   411  0093                     	;# 
   412  0094                     	;# 
   413  0098                     	;# 
   414  0099                     	;# 
   415  009C                     	;# 
   416  009D                     	;# 
   417  009E                     	;# 
   418  009F                     	;# 
   419  010C                     	;# 
   420  010D                     	;# 
   421  010E                     	;# 
   422  010F                     	;# 
   423  018C                     	;# 
   424  018D                     	;# 
   425  001E                     _ADRESH	set	30
   426  001F                     _ADCON0	set	31
   427  001D                     _CCP2CONbits	set	29
   428  0012                     _T2CONbits	set	18
   429  0017                     _CCP1CONbits	set	23
   430  001B                     _CCPR2L	set	27
   431  0015                     _CCPR1L	set	21
   432  0001                     _TMR0	set	1
   433  000B                     _INTCONbits	set	11
   434  0007                     _PORTC	set	7
   435  001A                     _RCREG	set	26
   436  0019                     _TXREG	set	25
   437  00FA                     _GO_nDONE	set	250
   438  00EC                     _CCP2Y	set	236
   439  00ED                     _CCP2X	set	237
   440  00BC                     _CCP1Y	set	188
   441  00BD                     _CCP1X	set	189
   442  0042                     _RD2	set	66
   443  0040                     _RD0	set	64
   444  0047                     _RD7	set	71
   445  0046                     _RD6	set	70
   446  0045                     _RD5	set	69
   447  0044                     _RD4	set	68
   448  0041                     _RD1	set	65
   449  0065                     _RCIF	set	101
   450  00C4                     _CREN	set	196
   451  00C7                     _SPEN	set	199
   452  009E                     _ADRESL	set	158
   453  009F                     _ADCON1	set	159
   454  0087                     _TRISCbits	set	135
   455  0092                     _PR2	set	146
   456  0081                     _OPTION_REGbits	set	129
   457  0087                     _TRISC	set	135
   458  0088                     _TRISD	set	136
   459  0099                     _SPBRG	set	153
   460  0431                     _TRISB1	set	1073
   461  04C1                     _TRMT	set	1217
   462  04C5                     _TXEN	set	1221
   463  043E                     _TRISC6	set	1086
   464  043F                     _TRISC7	set	1087
   465  04C4                     _SYNC	set	1220
   466  04C2                     _BRGH	set	1218
   467                           
   468                           	psect	strings
   469  0800                     __pstrings:
   470  0800                     stringtab:
   471  0800                     __stringtab:
   472  0800                     stringcode:	
   473                           ;	String table - string pointers are 1 byte each
   474                           
   475  0800                     stringdir:
   476  0800  3008               	movlw	high stringdir
   477  0801  008A               	movwf	10
   478  0802  0804               	movf	4,w
   479  0803  0A84               	incf	4,f
   480  0804  0782               	addwf	2,f
   481  0805                     __stringbase:
   482  0805  3400               	retlw	0
   483  0806                     __end_of__stringtab:
   484  0806                     STR_15:
   485  0806  3420               	retlw	32	;' '
   486  0807  3444               	retlw	68	;'D'
   487  0808  3461               	retlw	97	;'a'
   488  0809  346E               	retlw	110	;'n'
   489  080A  3467               	retlw	103	;'g'
   490  080B  3420               	retlw	32	;' '
   491  080C  344D               	retlw	77	;'M'
   492  080D  346F               	retlw	111	;'o'
   493  080E  3420               	retlw	32	;' '
   494  080F  3400               	retlw	0
   495  0810                     STR_16:
   496  0810  3444               	retlw	68	;'D'
   497  0811  3461               	retlw	97	;'a'
   498  0812  346E               	retlw	110	;'n'
   499  0813  3467               	retlw	103	;'g'
   500  0814  3420               	retlw	32	;' '
   501  0815  3444               	retlw	68	;'D'
   502  0816  346F               	retlw	111	;'o'
   503  0817  346E               	retlw	110	;'n'
   504  0818  3467               	retlw	103	;'g'
   505  0819  3400               	retlw	0
   506  081A                     STR_4:
   507  081A  344D               	retlw	77	;'M'
   508  081B  346F               	retlw	111	;'o'
   509  081C  3464               	retlw	100	;'d'
   510  081D  3465               	retlw	101	;'e'
   511  081E  3420               	retlw	32	;' '
   512  081F  3431               	retlw	49	;'1'
   513  0820  3400               	retlw	0
   514  0821                     STR_5:
   515  0821  344D               	retlw	77	;'M'
   516  0822  346F               	retlw	111	;'o'
   517  0823  3464               	retlw	100	;'d'
   518  0824  3465               	retlw	101	;'e'
   519  0825  3420               	retlw	32	;' '
   520  0826  3432               	retlw	50	;'2'
   521  0827  3400               	retlw	0
   522  0828                     STR_6:
   523  0828  344D               	retlw	77	;'M'
   524  0829  346F               	retlw	111	;'o'
   525  082A  3464               	retlw	100	;'d'
   526  082B  3465               	retlw	101	;'e'
   527  082C  3420               	retlw	32	;' '
   528  082D  3433               	retlw	51	;'3'
   529  082E  3400               	retlw	0
   530  082F                     STR_1:
   531  082F  3443               	retlw	67	;'C'
   532  0830  3468               	retlw	104	;'h'
   533  0831  346F               	retlw	111	;'o'
   534  0832  346E               	retlw	110	;'n'
   535  0833  342D               	retlw	45	;'-'
   536  0834  343E               	retlw	62	;'>'
   537  0835  3400               	retlw	0
   538  0836                     STR_3:
   539  0836  344D               	retlw	77	;'M'
   540  0837  346F               	retlw	111	;'o'
   541  0838  3420               	retlw	32	;' '
   542  0839  3443               	retlw	67	;'C'
   543  083A  3475               	retlw	117	;'u'
   544  083B  3461               	retlw	97	;'a'
   545  083C  3400               	retlw	0
   546  083D                     STR_2:
   547  083D  3444               	retlw	68	;'D'
   548  083E  346E               	retlw	110	;'n'
   549  083F  3467               	retlw	103	;'g'
   550  0840  3443               	retlw	67	;'C'
   551  0841  3475               	retlw	117	;'u'
   552  0842  3461               	retlw	97	;'a'
   553  0843  3400               	retlw	0
   554  0844                     STR_9:
   555  0844  3463               	retlw	99	;'c'
   556  0845  3468               	retlw	104	;'h'
   557  0846  3475               	retlw	117	;'u'
   558  0847  3420               	retlw	32	;' '
   559  0848  3478               	retlw	120	;'x'
   560  0849  3465               	retlw	101	;'e'
   561  084A  3400               	retlw	0
   562  084B                     STR_7:
   563  084B  3441               	retlw	65	;'A'
   564  084C  346C               	retlw	108	;'l'
   565  084D  346C               	retlw	108	;'l'
   566  084E  344F               	retlw	79	;'O'
   567  084F  3466               	retlw	102	;'f'
   568  0850  3466               	retlw	102	;'f'
   569  0851  3400               	retlw	0
   570  0852                     STR_8:
   571  0852  3441               	retlw	65	;'A'
   572  0853  346C               	retlw	108	;'l'
   573  0854  346C               	retlw	108	;'l'
   574  0855  3420               	retlw	32	;' '
   575  0856  344F               	retlw	79	;'O'
   576  0857  346E               	retlw	110	;'n'
   577  0858  3400               	retlw	0
   578  0859                     STR_11:
   579  0859  3420               	retlw	32	;' '
   580  085A  3420               	retlw	32	;' '
   581  085B  3420               	retlw	32	;' '
   582  085C  3400               	retlw	0
   583  085D                     STR_12:
   584  085D  344F               	retlw	79	;'O'
   585  085E  344B               	retlw	75	;'K'
   586  085F  3420               	retlw	32	;' '
   587  0860  3400               	retlw	0
   588  0861                     STR_13:
   589  0861  344F               	retlw	79	;'O'
   590  0862  344E               	retlw	78	;'N'
   591  0863  3420               	retlw	32	;' '
   592  0864  3400               	retlw	0
   593  0865                     STR_14:
   594  0865  344F               	retlw	79	;'O'
   595  0866  3446               	retlw	70	;'F'
   596  0867  3446               	retlw	70	;'F'
   597  0868  3400               	retlw	0
   598  0869                     STR_25:
   599  0869  3425               	retlw	37	;'%'
   600  086A  3475               	retlw	117	;'u'
   601  086B  3400               	retlw	0
   602  086C                     STR_10:
   603  086C  343A               	retlw	58	;':'
   604  086D  3400               	retlw	0
   605  086E                     STR_24:
   606  086E  3478               	retlw	120	;'x'
   607  086F  3400               	retlw	0
   608  085B                     
   609                           	psect	cinit
   610  000F                     start_initialization:	
   611                           ; #config settings
   612                           
   613  000F                     __initialization:
   614                           
   615                           ; Clear objects allocated to COMMON
   616  000F  01FA               	clrf	__pbssCOMMON& (0+127)
   617  0010  01FB               	clrf	(__pbssCOMMON+1)& (0+127)
   618                           
   619                           ; Clear objects allocated to BANK0
   620  0011  1383               	bcf	3,7	;select IRP bank0
   621  0012  3060               	movlw	low __pbssBANK0
   622  0013  0084               	movwf	4
   623  0014  306E               	movlw	low (__pbssBANK0+14)
   624  0015  120A  158A  2345  120A  118A  	fcall	clear_ram0
   625                           
   626                           ; Clear objects allocated to BANK1
   627  001A  30A0               	movlw	low __pbssBANK1
   628  001B  0084               	movwf	4
   629  001C  30AA               	movlw	low (__pbssBANK1+10)
   630  001D  120A  158A  2345  120A  118A  	fcall	clear_ram0
   631  0022                     end_of_initialization:	
   632                           ;End of C runtime variable initialization code
   633                           
   634  0022                     __end_of__initialization:
   635  0022  0183               	clrf	3
   636  0023  120A  158A  2DDA   	ljmp	_main	;jump to C main() function
   637                           
   638                           	psect	bssCOMMON
   639  007A                     __pbssCOMMON:
   640  007A                     _count:
   641  007A                     	ds	2
   642                           
   643                           	psect	bssBANK0
   644  0060                     __pbssBANK0:
   645  0060                     _duty:
   646  0060                     	ds	2
   647  0062                     _hour:
   648  0062                     	ds	2
   649  0064                     _second:
   650  0064                     	ds	2
   651  0066                     _minute:
   652  0066                     	ds	2
   653  0068                     _x:
   654  0068                     	ds	2
   655  006A                     _freq:
   656  006A                     	ds	4
   657                           
   658                           	psect	bssBANK1
   659  00A0                     __pbssBANK1:
   660  00A0                     _s:
   661  00A0                     	ds	10
   662                           
   663                           	psect	clrtext
   664  0B45                     clear_ram0:	
   665                           ;	Called with FSR containing the base address, and
   666                           ;	W with the last address+1
   667                           
   668  0B45  0064               	clrwdt	;clear the watchdog before getting into this loop
   669  0B46                     clrloop0:
   670  0B46  0180               	clrf	0	;clear RAM location pointed to by FSR
   671  0B47  0A84               	incf	4,f	;increment pointer
   672  0B48  0604               	xorwf	4,w	;XOR with final address
   673  0B49  1903               	btfsc	3,2	;have we reached the end yet?
   674  0B4A  3400               	retlw	0	;all done for this memory range, return
   675  0B4B  0604               	xorwf	4,w	;XOR again to restore value
   676  0B4C  2B46               	goto	clrloop0	;do the next byte
   677                           
   678                           	psect	cstackCOMMON
   679  0070                     __pcstackCOMMON:
   680  0070                     ?_TMR0_Unit:
   681  0070                     ?_ADC_Initialize:	
   682                           ; 1 bytes @ 0x0
   683                           
   684  0070                     ?_Lcd_Init:	
   685                           ; 1 bytes @ 0x0
   686                           
   687  0070                     ?_Lcd_Write_String:	
   688                           ; 1 bytes @ 0x0
   689                           
   690  0070                     ?_UART_Write:	
   691                           ; 1 bytes @ 0x0
   692                           
   693  0070                     ?_main:	
   694                           ; 1 bytes @ 0x0
   695                           
   696  0070                     ?_ISR:	
   697                           ; 1 bytes @ 0x0
   698                           
   699  0070                     ??_ISR:	
   700                           ; 1 bytes @ 0x0
   701                           
   702  0070                     ?_Lcd_Port:	
   703                           ; 1 bytes @ 0x0
   704                           
   705  0070                     ?_Lcd_Cmd:	
   706                           ; 1 bytes @ 0x0
   707                           
   708  0070                     ?_Lcd_Write_Char:	
   709                           ; 1 bytes @ 0x0
   710                           
   711                           
   712                           ; 1 bytes @ 0x0
   713  0070                     	ds	2
   714  0072                     ??_TMR0_Unit:
   715  0072                     ??_ADC_Initialize:	
   716                           ; 1 bytes @ 0x2
   717                           
   718  0072                     ??_UART_Write:	
   719                           ; 1 bytes @ 0x2
   720                           
   721  0072                     ??_Lcd_Port:	
   722                           ; 1 bytes @ 0x2
   723                           
   724  0072                     ?_ADC_Read:	
   725                           ; 1 bytes @ 0x2
   726                           
   727  0072                     ?___aldiv:	
   728                           ; 2 bytes @ 0x2
   729                           
   730  0072                     UART_Write@data:	
   731                           ; 4 bytes @ 0x2
   732                           
   733  0072                     Lcd_Port@a:	
   734                           ; 1 bytes @ 0x2
   735                           
   736  0072                     ___aldiv@divisor:	
   737                           ; 1 bytes @ 0x2
   738                           
   739                           
   740                           ; 4 bytes @ 0x2
   741  0072                     	ds	1
   742  0073                     ??_Lcd_Cmd:
   743  0073                     ??_Lcd_Write_Char:	
   744                           ; 1 bytes @ 0x3
   745                           
   746                           
   747                           ; 1 bytes @ 0x3
   748  0073                     	ds	1
   749  0074                     ??_ADC_Read:
   750  0074                     Lcd_Write_Char@temp:	
   751                           ; 1 bytes @ 0x4
   752                           
   753                           
   754                           ; 1 bytes @ 0x4
   755  0074                     	ds	1
   756  0075                     Lcd_Cmd@a:
   757  0075                     Lcd_Write_Char@y:	
   758                           ; 1 bytes @ 0x5
   759                           
   760                           
   761                           ; 1 bytes @ 0x5
   762  0075                     	ds	1
   763  0076                     ??_Lcd_Init:
   764  0076                     ?_Lcd_Set_Cursor:	
   765                           ; 1 bytes @ 0x6
   766                           
   767  0076                     Lcd_Set_Cursor@b:	
   768                           ; 1 bytes @ 0x6
   769                           
   770  0076                     Lcd_Write_Char@a:	
   771                           ; 1 bytes @ 0x6
   772                           
   773  0076                     ADC_Read@channel:	
   774                           ; 1 bytes @ 0x6
   775                           
   776  0076                     ___aldiv@dividend:	
   777                           ; 1 bytes @ 0x6
   778                           
   779                           
   780                           ; 4 bytes @ 0x6
   781  0076                     	ds	1
   782  0077                     ??_Lcd_Set_Cursor:
   783  0077                     ??_Lcd_Write_String:	
   784                           ; 1 bytes @ 0x7
   785                           
   786  0077                     Lcd_Write_String@i:	
   787                           ; 1 bytes @ 0x7
   788                           
   789                           
   790                           ; 2 bytes @ 0x7
   791  0077                     	ds	2
   792  0079                     Lcd_Write_String@a:
   793                           
   794                           ; 1 bytes @ 0x9
   795  0079                     	ds	1
   796                           
   797                           	psect	cstackBANK0
   798  0020                     __pcstackBANK0:
   799  0020                     ??___aldiv:
   800  0020                     Lcd_Set_Cursor@a:	
   801                           ; 1 bytes @ 0x0
   802                           
   803                           
   804                           ; 1 bytes @ 0x0
   805  0020                     	ds	1
   806  0021                     Lcd_Set_Cursor@z:
   807  0021                     ___aldiv@counter:	
   808                           ; 1 bytes @ 0x1
   809                           
   810                           
   811                           ; 1 bytes @ 0x1
   812  0021                     	ds	1
   813  0022                     Lcd_Set_Cursor@y:
   814  0022                     ___aldiv@sign:	
   815                           ; 1 bytes @ 0x2
   816                           
   817                           
   818                           ; 1 bytes @ 0x2
   819  0022                     	ds	1
   820  0023                     Lcd_Set_Cursor@temp:
   821  0023                     ___aldiv@quotient:	
   822                           ; 1 bytes @ 0x3
   823                           
   824                           
   825                           ; 4 bytes @ 0x3
   826  0023                     	ds	4
   827  0027                     ?_UART_Init:
   828  0027                     UART_Init@baudrate:	
   829                           ; 1 bytes @ 0x7
   830                           
   831                           
   832                           ; 4 bytes @ 0x7
   833  0027                     	ds	4
   834  002B                     ??_UART_Init:
   835                           
   836                           ; 1 bytes @ 0xB
   837  002B                     	ds	12
   838  0037                     UART_Init@x:
   839                           
   840                           ; 2 bytes @ 0x17
   841  0037                     	ds	2
   842  0039                     ??_main:
   843                           
   844                           ; 1 bytes @ 0x19
   845  0039                     	ds	5
   846  003E                     main@y:
   847                           
   848                           ; 2 bytes @ 0x1E
   849  003E                     	ds	2
   850  0040                     main@dem:
   851                           
   852                           ; 2 bytes @ 0x20
   853  0040                     	ds	2
   854  0042                     main@i:
   855                           
   856                           ; 2 bytes @ 0x22
   857  0042                     	ds	2
   858  0044                     main@trai:
   859                           
   860                           ; 2 bytes @ 0x24
   861  0044                     	ds	2
   862  0046                     main@dongcua:
   863                           
   864                           ; 2 bytes @ 0x26
   865  0046                     	ds	2
   866  0048                     main@mocua:
   867                           
   868                           ; 2 bytes @ 0x28
   869  0048                     	ds	2
   870  004A                     main@len:
   871                           
   872                           ; 2 bytes @ 0x2A
   873  004A                     	ds	2
   874  004C                     main@xuong:
   875                           
   876                           ; 2 bytes @ 0x2C
   877  004C                     	ds	2
   878  004E                     main@trangthaim4:
   879                           
   880                           ; 2 bytes @ 0x2E
   881  004E                     	ds	2
   882  0050                     main@trangthaim1:
   883                           
   884                           ; 2 bytes @ 0x30
   885  0050                     	ds	2
   886  0052                     main@trangthaim2:
   887                           
   888                           ; 2 bytes @ 0x32
   889  0052                     	ds	2
   890  0054                     main@trangthaim3:
   891                           
   892                           ; 2 bytes @ 0x34
   893  0054                     	ds	2
   894  0056                     main@joy_X:
   895                           
   896                           ; 2 bytes @ 0x36
   897  0056                     	ds	2
   898  0058                     main@joy_Y:
   899                           
   900                           ; 2 bytes @ 0x38
   901  0058                     	ds	2
   902  005A                     main@trangthai:
   903                           
   904                           ; 2 bytes @ 0x3A
   905  005A                     	ds	2
   906  005C                     main@phai:
   907                           
   908                           ; 2 bytes @ 0x3C
   909  005C                     	ds	2
   910  005E                     main@tinhnang:
   911                           
   912                           ; 2 bytes @ 0x3E
   913  005E                     	ds	2
   914                           
   915                           	psect	maintext
   916  0DDA                     __pmaintext:	
   917 ;;
   918 ;;Main: autosize = 0, tempsize = 3, incstack = 0, save=0
   919 ;;
   920 ;; *************** function _main *****************
   921 ;; Defined at:
   922 ;;		line 14 in file "Mainprj2.c"
   923 ;; Parameters:    Size  Location     Type
   924 ;;		None
   925 ;; Auto vars:     Size  Location     Type
   926 ;;  i               2   34[BANK0 ] int 
   927 ;;  joy_Y           2   56[BANK0 ] int 
   928 ;;  joy_X           2   54[BANK0 ] int 
   929 ;;  tinhnang        2   62[BANK0 ] int 
   930 ;;  phai            2   60[BANK0 ] int 
   931 ;;  trangthai       2   58[BANK0 ] int 
   932 ;;  trangthaim3     2   52[BANK0 ] int 
   933 ;;  trangthaim2     2   50[BANK0 ] int 
   934 ;;  trangthaim1     2   48[BANK0 ] int 
   935 ;;  trangthaim4     2   46[BANK0 ] int 
   936 ;;  xuong           2   44[BANK0 ] int 
   937 ;;  len             2   42[BANK0 ] int 
   938 ;;  mocua           2   40[BANK0 ] int 
   939 ;;  dongcua         2   38[BANK0 ] int 
   940 ;;  trai            2   36[BANK0 ] int 
   941 ;;  dem             2   32[BANK0 ] int 
   942 ;;  y               2   30[BANK0 ] int 
   943 ;;  x               2    0        int 
   944 ;;  vitri           1    0        unsigned char 
   945 ;; Return value:  Size  Location     Type
   946 ;;                  1    wreg      void 
   947 ;; Registers used:
   948 ;;		wreg, fsr0l, fsr0h, status,2, status,0, btemp+1, pclath, cstack
   949 ;; Tracked objects:
   950 ;;		On entry : B00/0
   951 ;;		On exit  : 0/0
   952 ;;		Unchanged: 0/0
   953 ;; Data sizes:     COMMON   BANK0   BANK1   BANK3   BANK2
   954 ;;      Params:         0       0       0       0       0
   955 ;;      Locals:         0      36       0       0       0
   956 ;;      Temps:          0       3       0       0       0
   957 ;;      Totals:         0      39       0       0       0
   958 ;;Total ram usage:       39 bytes
   959 ;; Hardware stack levels required when called:    4
   960 ;; This function calls:
   961 ;;		_ADC_Initialize
   962 ;;		_ADC_Read
   963 ;;		_Lcd_Init
   964 ;;		_Lcd_Set_Cursor
   965 ;;		_Lcd_Write_String
   966 ;;		_TMR0_Unit
   967 ;;		_UART_Init
   968 ;;		_UART_Write
   969 ;; This function is called by:
   970 ;;		Startup code after reset
   971 ;; This function uses a non-reentrant model
   972 ;;
   973                           
   974                           
   975                           ;psect for function _main
   976  0DDA                     _main:
   977  0DDA                     l2860:	
   978                           ;incstack = 0
   979                           ; Regs used in _main: [wreg-fsr0h+status,2+status,0+btemp+1+pclath+cstack]
   980                           
   981                           
   982                           ;Mainprj2.c: 16:     TRISD = 0x00;
   983  0DDA  1683               	bsf	3,5	;RP0=1, select bank1
   984  0DDB  1303               	bcf	3,6	;RP1=0, select bank1
   985  0DDC  0188               	clrf	8	;volatile
   986  0DDD                     l2862:
   987                           
   988                           ;Mainprj2.c: 17:     UART_Init(9600);
   989  0DDD  3000               	movlw	0
   990  0DDE  1283               	bcf	3,5	;RP0=0, select bank0
   991  0DDF  1303               	bcf	3,6	;RP1=0, select bank0
   992  0DE0  00AA               	movwf	UART_Init@baudrate+3
   993  0DE1  3000               	movlw	0
   994  0DE2  00A9               	movwf	UART_Init@baudrate+2
   995  0DE3  3025               	movlw	37
   996  0DE4  00A8               	movwf	UART_Init@baudrate+1
   997  0DE5  3080               	movlw	128
   998  0DE6  00A7               	movwf	UART_Init@baudrate
   999  0DE7  120A  158A  24FD  120A  158A  	fcall	_UART_Init
  1000  0DEC                     l2864:
  1001                           
  1002                           ;Mainprj2.c: 18:     TMR0_Unit();
  1003  0DEC  120A  158A  2356  120A  158A  	fcall	_TMR0_Unit
  1004                           
  1005                           ;Mainprj2.c: 19:     TRISC=0X00;
  1006  0DF1  1683               	bsf	3,5	;RP0=1, select bank1
  1007  0DF2  1303               	bcf	3,6	;RP1=0, select bank1
  1008  0DF3  0187               	clrf	7	;volatile
  1009                           
  1010                           ;Mainprj2.c: 20:     PORTC=0X00;
  1011  0DF4  1283               	bcf	3,5	;RP0=0, select bank0
  1012  0DF5  1303               	bcf	3,6	;RP1=0, select bank0
  1013  0DF6  0187               	clrf	7	;volatile
  1014  0DF7                     l2866:
  1015                           
  1016                           ;Mainprj2.c: 21:     TRISB1=1;
  1017  0DF7  1683               	bsf	3,5	;RP0=1, select bank1
  1018  0DF8  1303               	bcf	3,6	;RP1=0, select bank1
  1019  0DF9  1486               	bsf	6,1	;volatile
  1020  0DFA                     l2868:
  1021                           
  1022                           ;Mainprj2.c: 22:     ADC_Initialize();
  1023  0DFA  120A  158A  234D  120A  158A  	fcall	_ADC_Initialize
  1024  0DFF                     l2870:
  1025                           
  1026                           ;Mainprj2.c: 23:     Lcd_Init();
  1027  0DFF  120A  158A  249F  120A  158A  	fcall	_Lcd_Init
  1028  0E04  1283               	bcf	3,5	;RP0=0, select bank0
  1029  0E05  1303               	bcf	3,6	;RP1=0, select bank0
  1030  0E06  01BE               	clrf	main@y
  1031  0E07  01BF               	clrf	main@y+1
  1032                           
  1033                           ;Mainprj2.c: 25:     int dem =0;
  1034  0E08  01C0               	clrf	main@dem
  1035  0E09  01C1               	clrf	main@dem+1
  1036                           
  1037                           ;Mainprj2.c: 26:     int len=0,xuong=0,trai=0,phai=0,dongcua=1,mocua=0;
  1038  0E0A  01CA               	clrf	main@len
  1039  0E0B  01CB               	clrf	main@len+1
  1040  0E0C  01CC               	clrf	main@xuong
  1041  0E0D  01CD               	clrf	main@xuong+1
  1042  0E0E  01C4               	clrf	main@trai
  1043  0E0F  01C5               	clrf	main@trai+1
  1044  0E10  01DC               	clrf	main@phai
  1045  0E11  01DD               	clrf	main@phai+1
  1046  0E12                     l2872:
  1047  0E12  3001               	movlw	1
  1048  0E13  00C6               	movwf	main@dongcua
  1049  0E14  3000               	movlw	0
  1050  0E15  00C7               	movwf	main@dongcua+1
  1051  0E16                     l2874:
  1052  0E16  01C8               	clrf	main@mocua
  1053  0E17  01C9               	clrf	main@mocua+1
  1054                           
  1055                           ;Mainprj2.c: 27:     char vitri;;Mainprj2.c: 28:     int tinhnang=1,trangthai=0,trangtha
      +                          im1=1,trangthaim2=1,trangthaim3=0,trangthaim4=0;
  1056  0E18  3001               	movlw	1
  1057  0E19  00DE               	movwf	main@tinhnang
  1058  0E1A  3000               	movlw	0
  1059  0E1B  00DF               	movwf	main@tinhnang+1
  1060  0E1C                     l2876:
  1061  0E1C  01DA               	clrf	main@trangthai
  1062  0E1D  01DB               	clrf	main@trangthai+1
  1063  0E1E                     l2878:
  1064  0E1E  3001               	movlw	1
  1065  0E1F  00D0               	movwf	main@trangthaim1
  1066  0E20  3000               	movlw	0
  1067  0E21  00D1               	movwf	main@trangthaim1+1
  1068  0E22                     l2880:
  1069  0E22  3001               	movlw	1
  1070  0E23  00D2               	movwf	main@trangthaim2
  1071  0E24  3000               	movlw	0
  1072  0E25  00D3               	movwf	main@trangthaim2+1
  1073  0E26                     l2882:
  1074  0E26  01D4               	clrf	main@trangthaim3
  1075  0E27  01D5               	clrf	main@trangthaim3+1
  1076  0E28                     l2884:
  1077  0E28  01CE               	clrf	main@trangthaim4
  1078  0E29  01CF               	clrf	main@trangthaim4+1
  1079  0E2A                     l2886:
  1080                           
  1081                           ;Mainprj2.c: 30:         Lcd_Set_Cursor(2,1);
  1082  0E2A  01F6               	clrf	Lcd_Set_Cursor@b
  1083  0E2B  0AF6               	incf	Lcd_Set_Cursor@b,f
  1084  0E2C  3002               	movlw	2
  1085  0E2D  120A  158A  2447  120A  158A  	fcall	_Lcd_Set_Cursor
  1086  0E32                     l2888:
  1087                           
  1088                           ;Mainprj2.c: 31:         Lcd_Write_String("Chon->");
  1089  0E32  302A               	movlw	(low ((STR_1-__stringbase)| (0+32768)))& (0+255)
  1090  0E33  120A  158A  23BE  120A  158A  	fcall	_Lcd_Write_String
  1091  0E38                     l2890:
  1092                           
  1093                           ;Mainprj2.c: 32:     int joy_X = (ADC_Read(0));
  1094  0E38  3000               	movlw	0
  1095  0E39  120A  158A  23E3  120A  158A  	fcall	_ADC_Read
  1096  0E3E  0873               	movf	?_ADC_Read+1,w
  1097  0E3F  1283               	bcf	3,5	;RP0=0, select bank0
  1098  0E40  1303               	bcf	3,6	;RP1=0, select bank0
  1099  0E41  00D7               	movwf	main@joy_X+1
  1100  0E42  0872               	movf	?_ADC_Read,w
  1101  0E43  00D6               	movwf	main@joy_X
  1102  0E44                     l2892:
  1103                           
  1104                           ;Mainprj2.c: 34:     int joy_Y = (ADC_Read(1));
  1105  0E44  3001               	movlw	1
  1106  0E45  120A  158A  23E3  120A  158A  	fcall	_ADC_Read
  1107  0E4A  0873               	movf	?_ADC_Read+1,w
  1108  0E4B  1283               	bcf	3,5	;RP0=0, select bank0
  1109  0E4C  1303               	bcf	3,6	;RP1=0, select bank0
  1110  0E4D  00D9               	movwf	main@joy_Y+1
  1111  0E4E  0872               	movf	?_ADC_Read,w
  1112  0E4F  00D8               	movwf	main@joy_Y
  1113  0E50                     l2894:
  1114                           
  1115                           ;Mainprj2.c: 37:     {;Mainprj2.c: 38:     if ((joy_X < 200) && (joy_Y < 200) )
  1116  0E50  0857               	movf	main@joy_X+1,w
  1117  0E51  3A80               	xorlw	128
  1118  0E52  00FF               	movwf	btemp+1
  1119  0E53  3080               	movlw	128
  1120  0E54  027F               	subwf	btemp+1,w
  1121  0E55  1D03               	skipz
  1122  0E56  2E59               	goto	u3405
  1123  0E57  30C8               	movlw	200
  1124  0E58  0256               	subwf	main@joy_X,w
  1125  0E59                     u3405:
  1126  0E59  1803               	skipnc
  1127  0E5A  2E5C               	goto	u3401
  1128  0E5B  2E5D               	goto	u3400
  1129  0E5C                     u3401:
  1130  0E5C  2E9E               	goto	l2910
  1131  0E5D                     u3400:
  1132  0E5D                     l2896:
  1133  0E5D  1283               	bcf	3,5	;RP0=0, select bank0
  1134  0E5E  1303               	bcf	3,6	;RP1=0, select bank0
  1135  0E5F  0859               	movf	main@joy_Y+1,w
  1136  0E60  3A80               	xorlw	128
  1137  0E61  00FF               	movwf	btemp+1
  1138  0E62  3080               	movlw	128
  1139  0E63  027F               	subwf	btemp+1,w
  1140  0E64  1D03               	skipz
  1141  0E65  2E68               	goto	u3415
  1142  0E66  30C8               	movlw	200
  1143  0E67  0258               	subwf	main@joy_Y,w
  1144  0E68                     u3415:
  1145  0E68  1803               	skipnc
  1146  0E69  2E6B               	goto	u3411
  1147  0E6A  2E6C               	goto	u3410
  1148  0E6B                     u3411:
  1149  0E6B  2E9E               	goto	l2910
  1150  0E6C                     u3410:
  1151  0E6C                     l2898:
  1152                           
  1153                           ;Mainprj2.c: 40:     { len++;trai=0;phai=0;xuong=0;
  1154  0E6C  3001               	movlw	1
  1155  0E6D  1283               	bcf	3,5	;RP0=0, select bank0
  1156  0E6E  1303               	bcf	3,6	;RP1=0, select bank0
  1157  0E6F  07CA               	addwf	main@len,f
  1158  0E70  1803               	skipnc
  1159  0E71  0ACB               	incf	main@len+1,f
  1160  0E72  3000               	movlw	0
  1161  0E73  07CB               	addwf	main@len+1,f
  1162  0E74                     l2900:
  1163  0E74  01C4               	clrf	main@trai
  1164  0E75  01C5               	clrf	main@trai+1
  1165  0E76                     l2902:
  1166  0E76  01DC               	clrf	main@phai
  1167  0E77  01DD               	clrf	main@phai+1
  1168  0E78                     l2904:
  1169  0E78  01CC               	clrf	main@xuong
  1170  0E79  01CD               	clrf	main@xuong+1
  1171  0E7A                     l2906:
  1172                           
  1173                           ;Mainprj2.c: 41:     if ( len >0)
  1174  0E7A  084B               	movf	main@len+1,w
  1175  0E7B  3A80               	xorlw	128
  1176  0E7C  00FF               	movwf	btemp+1
  1177  0E7D  3080               	movlw	128
  1178  0E7E  027F               	subwf	btemp+1,w
  1179  0E7F  1D03               	skipz
  1180  0E80  2E83               	goto	u3425
  1181  0E81  3001               	movlw	1
  1182  0E82  024A               	subwf	main@len,w
  1183  0E83                     u3425:
  1184  0E83  1C03               	skipc
  1185  0E84  2E86               	goto	u3421
  1186  0E85  2E87               	goto	u3420
  1187  0E86                     u3421:
  1188  0E86  2E9E               	goto	l2910
  1189  0E87                     u3420:
  1190  0E87                     l2908:
  1191                           
  1192                           ;Mainprj2.c: 42:     {;Mainprj2.c: 43:         tinhnang--;
  1193  0E87  30FF               	movlw	255
  1194  0E88  1283               	bcf	3,5	;RP0=0, select bank0
  1195  0E89  1303               	bcf	3,6	;RP1=0, select bank0
  1196  0E8A  07DE               	addwf	main@tinhnang,f
  1197  0E8B  1803               	skipnc
  1198  0E8C  0ADF               	incf	main@tinhnang+1,f
  1199  0E8D  30FF               	movlw	255
  1200  0E8E  07DF               	addwf	main@tinhnang+1,f
  1201                           
  1202                           ;Mainprj2.c: 44:         _delay((unsigned long)((1000)*(20000000/4000.0)));
  1203  0E8F  301A               	movlw	26
  1204  0E90  1283               	bcf	3,5	;RP0=0, select bank0
  1205  0E91  1303               	bcf	3,6	;RP1=0, select bank0
  1206  0E92  00BB               	movwf	??_main+2
  1207  0E93  305E               	movlw	94
  1208  0E94  00BA               	movwf	??_main+1
  1209  0E95  306D               	movlw	109
  1210  0E96  00B9               	movwf	??_main
  1211  0E97                     u4537:
  1212  0E97  0BB9               	decfsz	??_main,f
  1213  0E98  2E97               	goto	u4537
  1214  0E99  0BBA               	decfsz	??_main+1,f
  1215  0E9A  2E97               	goto	u4537
  1216  0E9B  0BBB               	decfsz	??_main+2,f
  1217  0E9C  2E97               	goto	u4537
  1218  0E9D  2E9E               	nop2
  1219  0E9E                     l2910:
  1220                           
  1221                           ;Mainprj2.c: 49:      if((joy_X > 800) && (joy_Y < 200) )
  1222  0E9E  1283               	bcf	3,5	;RP0=0, select bank0
  1223  0E9F  1303               	bcf	3,6	;RP1=0, select bank0
  1224  0EA0  0857               	movf	main@joy_X+1,w
  1225  0EA1  3A80               	xorlw	128
  1226  0EA2  00FF               	movwf	btemp+1
  1227  0EA3  3083               	movlw	131
  1228  0EA4  027F               	subwf	btemp+1,w
  1229  0EA5  1D03               	skipz
  1230  0EA6  2EA9               	goto	u3435
  1231  0EA7  3021               	movlw	33
  1232  0EA8  0256               	subwf	main@joy_X,w
  1233  0EA9                     u3435:
  1234  0EA9  1C03               	skipc
  1235  0EAA  2EAC               	goto	u3431
  1236  0EAB  2EAD               	goto	u3430
  1237  0EAC                     u3431:
  1238  0EAC  2EEE               	goto	l2926
  1239  0EAD                     u3430:
  1240  0EAD                     l2912:
  1241  0EAD  1283               	bcf	3,5	;RP0=0, select bank0
  1242  0EAE  1303               	bcf	3,6	;RP1=0, select bank0
  1243  0EAF  0859               	movf	main@joy_Y+1,w
  1244  0EB0  3A80               	xorlw	128
  1245  0EB1  00FF               	movwf	btemp+1
  1246  0EB2  3080               	movlw	128
  1247  0EB3  027F               	subwf	btemp+1,w
  1248  0EB4  1D03               	skipz
  1249  0EB5  2EB8               	goto	u3445
  1250  0EB6  30C8               	movlw	200
  1251  0EB7  0258               	subwf	main@joy_Y,w
  1252  0EB8                     u3445:
  1253  0EB8  1803               	skipnc
  1254  0EB9  2EBB               	goto	u3441
  1255  0EBA  2EBC               	goto	u3440
  1256  0EBB                     u3441:
  1257  0EBB  2EEE               	goto	l2926
  1258  0EBC                     u3440:
  1259  0EBC                     l2914:
  1260                           
  1261                           ;Mainprj2.c: 51:     { len++;trai=0;phai=0;xuong=0;
  1262  0EBC  3001               	movlw	1
  1263  0EBD  1283               	bcf	3,5	;RP0=0, select bank0
  1264  0EBE  1303               	bcf	3,6	;RP1=0, select bank0
  1265  0EBF  07CA               	addwf	main@len,f
  1266  0EC0  1803               	skipnc
  1267  0EC1  0ACB               	incf	main@len+1,f
  1268  0EC2  3000               	movlw	0
  1269  0EC3  07CB               	addwf	main@len+1,f
  1270  0EC4                     l2916:
  1271  0EC4  01C4               	clrf	main@trai
  1272  0EC5  01C5               	clrf	main@trai+1
  1273  0EC6                     l2918:
  1274  0EC6  01DC               	clrf	main@phai
  1275  0EC7  01DD               	clrf	main@phai+1
  1276  0EC8                     l2920:
  1277  0EC8  01CC               	clrf	main@xuong
  1278  0EC9  01CD               	clrf	main@xuong+1
  1279  0ECA                     l2922:
  1280                           
  1281                           ;Mainprj2.c: 52:          if ( len >0)
  1282  0ECA  084B               	movf	main@len+1,w
  1283  0ECB  3A80               	xorlw	128
  1284  0ECC  00FF               	movwf	btemp+1
  1285  0ECD  3080               	movlw	128
  1286  0ECE  027F               	subwf	btemp+1,w
  1287  0ECF  1D03               	skipz
  1288  0ED0  2ED3               	goto	u3455
  1289  0ED1  3001               	movlw	1
  1290  0ED2  024A               	subwf	main@len,w
  1291  0ED3                     u3455:
  1292  0ED3  1C03               	skipc
  1293  0ED4  2ED6               	goto	u3451
  1294  0ED5  2ED7               	goto	u3450
  1295  0ED6                     u3451:
  1296  0ED6  2EEE               	goto	l2926
  1297  0ED7                     u3450:
  1298  0ED7                     l2924:
  1299                           
  1300                           ;Mainprj2.c: 53:     {;Mainprj2.c: 54:         tinhnang--;
  1301  0ED7  30FF               	movlw	255
  1302  0ED8  1283               	bcf	3,5	;RP0=0, select bank0
  1303  0ED9  1303               	bcf	3,6	;RP1=0, select bank0
  1304  0EDA  07DE               	addwf	main@tinhnang,f
  1305  0EDB  1803               	skipnc
  1306  0EDC  0ADF               	incf	main@tinhnang+1,f
  1307  0EDD  30FF               	movlw	255
  1308  0EDE  07DF               	addwf	main@tinhnang+1,f
  1309                           
  1310                           ;Mainprj2.c: 55:                _delay((unsigned long)((1000)*(20000000/4000.0)));
  1311  0EDF  301A               	movlw	26
  1312  0EE0  1283               	bcf	3,5	;RP0=0, select bank0
  1313  0EE1  1303               	bcf	3,6	;RP1=0, select bank0
  1314  0EE2  00BB               	movwf	??_main+2
  1315  0EE3  305E               	movlw	94
  1316  0EE4  00BA               	movwf	??_main+1
  1317  0EE5  306D               	movlw	109
  1318  0EE6  00B9               	movwf	??_main
  1319  0EE7                     u4547:
  1320  0EE7  0BB9               	decfsz	??_main,f
  1321  0EE8  2EE7               	goto	u4547
  1322  0EE9  0BBA               	decfsz	??_main+1,f
  1323  0EEA  2EE7               	goto	u4547
  1324  0EEB  0BBB               	decfsz	??_main+2,f
  1325  0EEC  2EE7               	goto	u4547
  1326  0EED  2EEE               	nop2
  1327  0EEE                     l2926:
  1328                           
  1329                           ;Mainprj2.c: 58:     if ((joy_X <= 800 && joy_X >= 200 ) && (joy_Y < 200) )
  1330  0EEE  1283               	bcf	3,5	;RP0=0, select bank0
  1331  0EEF  1303               	bcf	3,6	;RP1=0, select bank0
  1332  0EF0  0857               	movf	main@joy_X+1,w
  1333  0EF1  3A80               	xorlw	128
  1334  0EF2  00FF               	movwf	btemp+1
  1335  0EF3  3083               	movlw	131
  1336  0EF4  027F               	subwf	btemp+1,w
  1337  0EF5  1D03               	skipz
  1338  0EF6  2EF9               	goto	u3465
  1339  0EF7  3021               	movlw	33
  1340  0EF8  0256               	subwf	main@joy_X,w
  1341  0EF9                     u3465:
  1342  0EF9  1803               	skipnc
  1343  0EFA  2EFC               	goto	u3461
  1344  0EFB  2EFD               	goto	u3460
  1345  0EFC                     u3461:
  1346  0EFC  2F4D               	goto	l2944
  1347  0EFD                     u3460:
  1348  0EFD                     l2928:
  1349  0EFD  1283               	bcf	3,5	;RP0=0, select bank0
  1350  0EFE  1303               	bcf	3,6	;RP1=0, select bank0
  1351  0EFF  0857               	movf	main@joy_X+1,w
  1352  0F00  3A80               	xorlw	128
  1353  0F01  00FF               	movwf	btemp+1
  1354  0F02  3080               	movlw	128
  1355  0F03  027F               	subwf	btemp+1,w
  1356  0F04  1D03               	skipz
  1357  0F05  2F08               	goto	u3475
  1358  0F06  30C8               	movlw	200
  1359  0F07  0256               	subwf	main@joy_X,w
  1360  0F08                     u3475:
  1361  0F08  1C03               	skipc
  1362  0F09  2F0B               	goto	u3471
  1363  0F0A  2F0C               	goto	u3470
  1364  0F0B                     u3471:
  1365  0F0B  2F4D               	goto	l2944
  1366  0F0C                     u3470:
  1367  0F0C                     l2930:
  1368  0F0C  1283               	bcf	3,5	;RP0=0, select bank0
  1369  0F0D  1303               	bcf	3,6	;RP1=0, select bank0
  1370  0F0E  0859               	movf	main@joy_Y+1,w
  1371  0F0F  3A80               	xorlw	128
  1372  0F10  00FF               	movwf	btemp+1
  1373  0F11  3080               	movlw	128
  1374  0F12  027F               	subwf	btemp+1,w
  1375  0F13  1D03               	skipz
  1376  0F14  2F17               	goto	u3485
  1377  0F15  30C8               	movlw	200
  1378  0F16  0258               	subwf	main@joy_Y,w
  1379  0F17                     u3485:
  1380  0F17  1803               	skipnc
  1381  0F18  2F1A               	goto	u3481
  1382  0F19  2F1B               	goto	u3480
  1383  0F1A                     u3481:
  1384  0F1A  2F4D               	goto	l2944
  1385  0F1B                     u3480:
  1386  0F1B                     l2932:
  1387                           
  1388                           ;Mainprj2.c: 59:      { len++;trai=0;phai=0;xuong=0;
  1389  0F1B  3001               	movlw	1
  1390  0F1C  1283               	bcf	3,5	;RP0=0, select bank0
  1391  0F1D  1303               	bcf	3,6	;RP1=0, select bank0
  1392  0F1E  07CA               	addwf	main@len,f
  1393  0F1F  1803               	skipnc
  1394  0F20  0ACB               	incf	main@len+1,f
  1395  0F21  3000               	movlw	0
  1396  0F22  07CB               	addwf	main@len+1,f
  1397  0F23                     l2934:
  1398  0F23  01C4               	clrf	main@trai
  1399  0F24  01C5               	clrf	main@trai+1
  1400  0F25                     l2936:
  1401  0F25  01DC               	clrf	main@phai
  1402  0F26  01DD               	clrf	main@phai+1
  1403  0F27                     l2938:
  1404  0F27  01CC               	clrf	main@xuong
  1405  0F28  01CD               	clrf	main@xuong+1
  1406  0F29                     l2940:
  1407                           
  1408                           ;Mainprj2.c: 60:         if ( len >0)
  1409  0F29  084B               	movf	main@len+1,w
  1410  0F2A  3A80               	xorlw	128
  1411  0F2B  00FF               	movwf	btemp+1
  1412  0F2C  3080               	movlw	128
  1413  0F2D  027F               	subwf	btemp+1,w
  1414  0F2E  1D03               	skipz
  1415  0F2F  2F32               	goto	u3495
  1416  0F30  3001               	movlw	1
  1417  0F31  024A               	subwf	main@len,w
  1418  0F32                     u3495:
  1419  0F32  1C03               	skipc
  1420  0F33  2F35               	goto	u3491
  1421  0F34  2F36               	goto	u3490
  1422  0F35                     u3491:
  1423  0F35  2F4D               	goto	l2944
  1424  0F36                     u3490:
  1425  0F36                     l2942:
  1426                           
  1427                           ;Mainprj2.c: 61:     {;Mainprj2.c: 62:         tinhnang--;
  1428  0F36  30FF               	movlw	255
  1429  0F37  1283               	bcf	3,5	;RP0=0, select bank0
  1430  0F38  1303               	bcf	3,6	;RP1=0, select bank0
  1431  0F39  07DE               	addwf	main@tinhnang,f
  1432  0F3A  1803               	skipnc
  1433  0F3B  0ADF               	incf	main@tinhnang+1,f
  1434  0F3C  30FF               	movlw	255
  1435  0F3D  07DF               	addwf	main@tinhnang+1,f
  1436                           
  1437                           ;Mainprj2.c: 63:                _delay((unsigned long)((1000)*(20000000/4000.0)));
  1438  0F3E  301A               	movlw	26
  1439  0F3F  1283               	bcf	3,5	;RP0=0, select bank0
  1440  0F40  1303               	bcf	3,6	;RP1=0, select bank0
  1441  0F41  00BB               	movwf	??_main+2
  1442  0F42  305E               	movlw	94
  1443  0F43  00BA               	movwf	??_main+1
  1444  0F44  306D               	movlw	109
  1445  0F45  00B9               	movwf	??_main
  1446  0F46                     u4557:
  1447  0F46  0BB9               	decfsz	??_main,f
  1448  0F47  2F46               	goto	u4557
  1449  0F48  0BBA               	decfsz	??_main+1,f
  1450  0F49  2F46               	goto	u4557
  1451  0F4A  0BBB               	decfsz	??_main+2,f
  1452  0F4B  2F46               	goto	u4557
  1453  0F4C  2F4D               	nop2
  1454  0F4D                     l2944:
  1455                           
  1456                           ;Mainprj2.c: 67:     if ((joy_X < 200) && (joy_Y > 800) )
  1457  0F4D  1283               	bcf	3,5	;RP0=0, select bank0
  1458  0F4E  1303               	bcf	3,6	;RP1=0, select bank0
  1459  0F4F  0857               	movf	main@joy_X+1,w
  1460  0F50  3A80               	xorlw	128
  1461  0F51  00FF               	movwf	btemp+1
  1462  0F52  3080               	movlw	128
  1463  0F53  027F               	subwf	btemp+1,w
  1464  0F54  1D03               	skipz
  1465  0F55  2F58               	goto	u3505
  1466  0F56  30C8               	movlw	200
  1467  0F57  0256               	subwf	main@joy_X,w
  1468  0F58                     u3505:
  1469  0F58  1803               	skipnc
  1470  0F59  2F5B               	goto	u3501
  1471  0F5A  2F5C               	goto	u3500
  1472  0F5B                     u3501:
  1473  0F5B  2F9D               	goto	l2960
  1474  0F5C                     u3500:
  1475  0F5C                     l2946:
  1476  0F5C  1283               	bcf	3,5	;RP0=0, select bank0
  1477  0F5D  1303               	bcf	3,6	;RP1=0, select bank0
  1478  0F5E  0859               	movf	main@joy_Y+1,w
  1479  0F5F  3A80               	xorlw	128
  1480  0F60  00FF               	movwf	btemp+1
  1481  0F61  3083               	movlw	131
  1482  0F62  027F               	subwf	btemp+1,w
  1483  0F63  1D03               	skipz
  1484  0F64  2F67               	goto	u3515
  1485  0F65  3021               	movlw	33
  1486  0F66  0258               	subwf	main@joy_Y,w
  1487  0F67                     u3515:
  1488  0F67  1C03               	skipc
  1489  0F68  2F6A               	goto	u3511
  1490  0F69  2F6B               	goto	u3510
  1491  0F6A                     u3511:
  1492  0F6A  2F9D               	goto	l2960
  1493  0F6B                     u3510:
  1494  0F6B                     l2948:
  1495                           
  1496                           ;Mainprj2.c: 69:     { xuong++;len=0;trai=0;phai=0;
  1497  0F6B  3001               	movlw	1
  1498  0F6C  1283               	bcf	3,5	;RP0=0, select bank0
  1499  0F6D  1303               	bcf	3,6	;RP1=0, select bank0
  1500  0F6E  07CC               	addwf	main@xuong,f
  1501  0F6F  1803               	skipnc
  1502  0F70  0ACD               	incf	main@xuong+1,f
  1503  0F71  3000               	movlw	0
  1504  0F72  07CD               	addwf	main@xuong+1,f
  1505  0F73                     l2950:
  1506  0F73  01CA               	clrf	main@len
  1507  0F74  01CB               	clrf	main@len+1
  1508  0F75                     l2952:
  1509  0F75  01C4               	clrf	main@trai
  1510  0F76  01C5               	clrf	main@trai+1
  1511  0F77                     l2954:
  1512  0F77  01DC               	clrf	main@phai
  1513  0F78  01DD               	clrf	main@phai+1
  1514  0F79                     l2956:
  1515                           
  1516                           ;Mainprj2.c: 70:     if ( xuong>0)
  1517  0F79  084D               	movf	main@xuong+1,w
  1518  0F7A  3A80               	xorlw	128
  1519  0F7B  00FF               	movwf	btemp+1
  1520  0F7C  3080               	movlw	128
  1521  0F7D  027F               	subwf	btemp+1,w
  1522  0F7E  1D03               	skipz
  1523  0F7F  2F82               	goto	u3525
  1524  0F80  3001               	movlw	1
  1525  0F81  024C               	subwf	main@xuong,w
  1526  0F82                     u3525:
  1527  0F82  1C03               	skipc
  1528  0F83  2F85               	goto	u3521
  1529  0F84  2F86               	goto	u3520
  1530  0F85                     u3521:
  1531  0F85  2F9D               	goto	l2960
  1532  0F86                     u3520:
  1533  0F86                     l2958:
  1534                           
  1535                           ;Mainprj2.c: 71:     {;Mainprj2.c: 72:         tinhnang++;
  1536  0F86  3001               	movlw	1
  1537  0F87  1283               	bcf	3,5	;RP0=0, select bank0
  1538  0F88  1303               	bcf	3,6	;RP1=0, select bank0
  1539  0F89  07DE               	addwf	main@tinhnang,f
  1540  0F8A  1803               	skipnc
  1541  0F8B  0ADF               	incf	main@tinhnang+1,f
  1542  0F8C  3000               	movlw	0
  1543  0F8D  07DF               	addwf	main@tinhnang+1,f
  1544                           
  1545                           ;Mainprj2.c: 73:                _delay((unsigned long)((1000)*(20000000/4000.0)));
  1546  0F8E  301A               	movlw	26
  1547  0F8F  1283               	bcf	3,5	;RP0=0, select bank0
  1548  0F90  1303               	bcf	3,6	;RP1=0, select bank0
  1549  0F91  00BB               	movwf	??_main+2
  1550  0F92  305E               	movlw	94
  1551  0F93  00BA               	movwf	??_main+1
  1552  0F94  306D               	movlw	109
  1553  0F95  00B9               	movwf	??_main
  1554  0F96                     u4567:
  1555  0F96  0BB9               	decfsz	??_main,f
  1556  0F97  2F96               	goto	u4567
  1557  0F98  0BBA               	decfsz	??_main+1,f
  1558  0F99  2F96               	goto	u4567
  1559  0F9A  0BBB               	decfsz	??_main+2,f
  1560  0F9B  2F96               	goto	u4567
  1561  0F9C  2F9D               	nop2
  1562  0F9D                     l2960:
  1563                           
  1564                           ;Mainprj2.c: 77:      if((joy_X > 800) && (joy_Y >800) )
  1565  0F9D  1283               	bcf	3,5	;RP0=0, select bank0
  1566  0F9E  1303               	bcf	3,6	;RP1=0, select bank0
  1567  0F9F  0857               	movf	main@joy_X+1,w
  1568  0FA0  3A80               	xorlw	128
  1569  0FA1  00FF               	movwf	btemp+1
  1570  0FA2  3083               	movlw	131
  1571  0FA3  027F               	subwf	btemp+1,w
  1572  0FA4  1D03               	skipz
  1573  0FA5  2FA8               	goto	u3535
  1574  0FA6  3021               	movlw	33
  1575  0FA7  0256               	subwf	main@joy_X,w
  1576  0FA8                     u3535:
  1577  0FA8  1C03               	skipc
  1578  0FA9  2FAB               	goto	u3531
  1579  0FAA  2FAC               	goto	u3530
  1580  0FAB                     u3531:
  1581  0FAB  2FED               	goto	l2976
  1582  0FAC                     u3530:
  1583  0FAC                     l2962:
  1584  0FAC  1283               	bcf	3,5	;RP0=0, select bank0
  1585  0FAD  1303               	bcf	3,6	;RP1=0, select bank0
  1586  0FAE  0859               	movf	main@joy_Y+1,w
  1587  0FAF  3A80               	xorlw	128
  1588  0FB0  00FF               	movwf	btemp+1
  1589  0FB1  3083               	movlw	131
  1590  0FB2  027F               	subwf	btemp+1,w
  1591  0FB3  1D03               	skipz
  1592  0FB4  2FB7               	goto	u3545
  1593  0FB5  3021               	movlw	33
  1594  0FB6  0258               	subwf	main@joy_Y,w
  1595  0FB7                     u3545:
  1596  0FB7  1C03               	skipc
  1597  0FB8  2FBA               	goto	u3541
  1598  0FB9  2FBB               	goto	u3540
  1599  0FBA                     u3541:
  1600  0FBA  2FED               	goto	l2976
  1601  0FBB                     u3540:
  1602  0FBB                     l2964:
  1603                           
  1604                           ;Mainprj2.c: 79:       { xuong++;len=0;trai=0;phai=0;
  1605  0FBB  3001               	movlw	1
  1606  0FBC  1283               	bcf	3,5	;RP0=0, select bank0
  1607  0FBD  1303               	bcf	3,6	;RP1=0, select bank0
  1608  0FBE  07CC               	addwf	main@xuong,f
  1609  0FBF  1803               	skipnc
  1610  0FC0  0ACD               	incf	main@xuong+1,f
  1611  0FC1  3000               	movlw	0
  1612  0FC2  07CD               	addwf	main@xuong+1,f
  1613  0FC3                     l2966:
  1614  0FC3  01CA               	clrf	main@len
  1615  0FC4  01CB               	clrf	main@len+1
  1616  0FC5                     l2968:
  1617  0FC5  01C4               	clrf	main@trai
  1618  0FC6  01C5               	clrf	main@trai+1
  1619  0FC7                     l2970:
  1620  0FC7  01DC               	clrf	main@phai
  1621  0FC8  01DD               	clrf	main@phai+1
  1622  0FC9                     l2972:
  1623                           
  1624                           ;Mainprj2.c: 80:     if ( xuong>0)
  1625  0FC9  084D               	movf	main@xuong+1,w
  1626  0FCA  3A80               	xorlw	128
  1627  0FCB  00FF               	movwf	btemp+1
  1628  0FCC  3080               	movlw	128
  1629  0FCD  027F               	subwf	btemp+1,w
  1630  0FCE  1D03               	skipz
  1631  0FCF  2FD2               	goto	u3555
  1632  0FD0  3001               	movlw	1
  1633  0FD1  024C               	subwf	main@xuong,w
  1634  0FD2                     u3555:
  1635  0FD2  1C03               	skipc
  1636  0FD3  2FD5               	goto	u3551
  1637  0FD4  2FD6               	goto	u3550
  1638  0FD5                     u3551:
  1639  0FD5  2FED               	goto	l2976
  1640  0FD6                     u3550:
  1641  0FD6                     l2974:
  1642                           
  1643                           ;Mainprj2.c: 81:     {;Mainprj2.c: 82:         tinhnang++;
  1644  0FD6  3001               	movlw	1
  1645  0FD7  1283               	bcf	3,5	;RP0=0, select bank0
  1646  0FD8  1303               	bcf	3,6	;RP1=0, select bank0
  1647  0FD9  07DE               	addwf	main@tinhnang,f
  1648  0FDA  1803               	skipnc
  1649  0FDB  0ADF               	incf	main@tinhnang+1,f
  1650  0FDC  3000               	movlw	0
  1651  0FDD  07DF               	addwf	main@tinhnang+1,f
  1652                           
  1653                           ;Mainprj2.c: 83:                _delay((unsigned long)((1000)*(20000000/4000.0)));
  1654  0FDE  301A               	movlw	26
  1655  0FDF  1283               	bcf	3,5	;RP0=0, select bank0
  1656  0FE0  1303               	bcf	3,6	;RP1=0, select bank0
  1657  0FE1  00BB               	movwf	??_main+2
  1658  0FE2  305E               	movlw	94
  1659  0FE3  00BA               	movwf	??_main+1
  1660  0FE4  306D               	movlw	109
  1661  0FE5  00B9               	movwf	??_main
  1662  0FE6                     u4577:
  1663  0FE6  0BB9               	decfsz	??_main,f
  1664  0FE7  2FE6               	goto	u4577
  1665  0FE8  0BBA               	decfsz	??_main+1,f
  1666  0FE9  2FE6               	goto	u4577
  1667  0FEA  0BBB               	decfsz	??_main+2,f
  1668  0FEB  2FE6               	goto	u4577
  1669  0FEC  2FED               	nop2
  1670  0FED                     l2976:
  1671                           
  1672                           ;Mainprj2.c: 86:     if ((joy_X <= 800 && joy_X >= 200 ) && (joy_Y >800) )
  1673  0FED  1283               	bcf	3,5	;RP0=0, select bank0
  1674  0FEE  1303               	bcf	3,6	;RP1=0, select bank0
  1675  0FEF  0857               	movf	main@joy_X+1,w
  1676  0FF0  3A80               	xorlw	128
  1677  0FF1  00FF               	movwf	btemp+1
  1678  0FF2  3083               	movlw	131
  1679  0FF3  027F               	subwf	btemp+1,w
  1680  0FF4  1D03               	skipz
  1681  0FF5  2FF8               	goto	u3565
  1682  0FF6  3021               	movlw	33
  1683  0FF7  0256               	subwf	main@joy_X,w
  1684  0FF8                     u3565:
  1685  0FF8  1803               	skipnc
  1686  0FF9  2FFD               	goto	u3561
  1687  0FFA  120A  118A  2826   	goto	u3560
  1688  0FFD                     u3561:
  1689  0FFD  120A  118A  2876   	goto	l2994
  1690                           
  1691                           	psect	text1
  1692  07F1                     __ptext1:	
  1693 ;; *************** function _UART_Write *****************
  1694 ;; Defined at:
  1695 ;;		line 23 in file "./Uart.h"
  1696 ;; Parameters:    Size  Location     Type
  1697 ;;  data            1    wreg     unsigned char 
  1698 ;; Auto vars:     Size  Location     Type
  1699 ;;  data            1    2[COMMON] unsigned char 
  1700 ;; Return value:  Size  Location     Type
  1701 ;;                  1    wreg      void 
  1702 ;; Registers used:
  1703 ;;		wreg
  1704 ;; Tracked objects:
  1705 ;;		On entry : 0/0
  1706 ;;		On exit  : 0/0
  1707 ;;		Unchanged: 0/0
  1708 ;; Data sizes:     COMMON   BANK0   BANK1   BANK3   BANK2
  1709 ;;      Params:         0       0       0       0       0
  1710 ;;      Locals:         1       0       0       0       0
  1711 ;;      Temps:          0       0       0       0       0
  1712 ;;      Totals:         1       0       0       0       0
  1713 ;;Total ram usage:        1 bytes
  1714 ;; Hardware stack levels used:    1
  1715 ;; Hardware stack levels required when called:    1
  1716 ;; This function calls:
  1717 ;;		Nothing
  1718 ;; This function is called by:
  1719 ;;		_main
  1720 ;;		_UART_Write_Text
  1721 ;; This function uses a non-reentrant model
  1722 ;;
  1723                           
  1724                           
  1725                           ;psect for function _UART_Write
  1726  07F1                     _UART_Write:
  1727                           
  1728                           ;incstack = 0
  1729                           ; Regs used in _UART_Write: [wreg]
  1730                           ;UART_Write@data stored from wreg
  1731  07F1  00F2               	movwf	UART_Write@data
  1732  07F2                     l2000:
  1733  07F2                     l56:	
  1734                           ;./Uart.h: 23: void UART_Write(char data);./Uart.h: 24: {;./Uart.h: 25:   while(!TRMT);
  1735                           
  1736  07F2  1683               	bsf	3,5	;RP0=1, select bank1
  1737  07F3  1303               	bcf	3,6	;RP1=0, select bank1
  1738  07F4  1C98               	btfss	24,1	;volatile
  1739  07F5  2FF7               	goto	u1861
  1740  07F6  2FF8               	goto	u1860
  1741  07F7                     u1861:
  1742  07F7  2FF2               	goto	l56
  1743  07F8                     u1860:
  1744  07F8                     l2002:
  1745                           
  1746                           ;./Uart.h: 26:   TXREG = data;
  1747  07F8  0872               	movf	UART_Write@data,w
  1748  07F9  1283               	bcf	3,5	;RP0=0, select bank0
  1749  07FA  1303               	bcf	3,6	;RP1=0, select bank0
  1750  07FB  0099               	movwf	25	;volatile
  1751  07FC                     l59:
  1752  07FC  0008               	return
  1753  07FD                     __end_of_UART_Write:
  1754                           
  1755                           	psect	text2
  1756  0CFD                     __ptext2:	
  1757 ;; *************** function _UART_Init *****************
  1758 ;; Defined at:
  1759 ;;		line 1 in file "./Uart.h"
  1760 ;; Parameters:    Size  Location     Type
  1761 ;;  baudrate        4    7[BANK0 ] const long 
  1762 ;; Auto vars:     Size  Location     Type
  1763 ;;  x               2   23[BANK0 ] unsigned int 
  1764 ;; Return value:  Size  Location     Type
  1765 ;;                  1    wreg      unsigned char 
  1766 ;; Registers used:
  1767 ;;		wreg, status,2, status,0, pclath, cstack
  1768 ;; Tracked objects:
  1769 ;;		On entry : 0/0
  1770 ;;		On exit  : 0/0
  1771 ;;		Unchanged: 0/0
  1772 ;; Data sizes:     COMMON   BANK0   BANK1   BANK3   BANK2
  1773 ;;      Params:         0       4       0       0       0
  1774 ;;      Locals:         0       2       0       0       0
  1775 ;;      Temps:          0      12       0       0       0
  1776 ;;      Totals:         0      18       0       0       0
  1777 ;;Total ram usage:       18 bytes
  1778 ;; Hardware stack levels used:    1
  1779 ;; Hardware stack levels required when called:    2
  1780 ;; This function calls:
  1781 ;;		___aldiv
  1782 ;; This function is called by:
  1783 ;;		_main
  1784 ;; This function uses a non-reentrant model
  1785 ;;
  1786                           
  1787                           
  1788                           ;psect for function _UART_Init
  1789  0CFD                     _UART_Init:
  1790  0CFD                     l2830:	
  1791                           ;incstack = 0
  1792                           ; Regs used in _UART_Init: [wreg+status,2+status,0+pclath+cstack]
  1793                           
  1794                           
  1795                           ;./Uart.h: 1: char UART_Init(const long int baudrate);./Uart.h: 2: {;./Uart.h: 3:   unsi
      +                          gned int x;;./Uart.h: 4:   x = (20000000 - baudrate*64)/(baudrate*64);
  1796  0CFD  1283               	bcf	3,5	;RP0=0, select bank0
  1797  0CFE  1303               	bcf	3,6	;RP1=0, select bank0
  1798  0CFF  0827               	movf	UART_Init@baudrate,w
  1799  0D00  00AB               	movwf	??_UART_Init
  1800  0D01  0828               	movf	UART_Init@baudrate+1,w
  1801  0D02  00AC               	movwf	??_UART_Init+1
  1802  0D03  0829               	movf	UART_Init@baudrate+2,w
  1803  0D04  00AD               	movwf	??_UART_Init+2
  1804  0D05  082A               	movf	UART_Init@baudrate+3,w
  1805  0D06  00AE               	movwf	??_UART_Init+3
  1806  0D07  3006               	movlw	6
  1807  0D08                     u3315:
  1808  0D08  1003               	clrc
  1809  0D09  0DAB               	rlf	??_UART_Init,f
  1810  0D0A  0DAC               	rlf	??_UART_Init+1,f
  1811  0D0B  0DAD               	rlf	??_UART_Init+2,f
  1812  0D0C  0DAE               	rlf	??_UART_Init+3,f
  1813  0D0D                     u3310:
  1814  0D0D  3EFF               	addlw	-1
  1815  0D0E  1D03               	skipz
  1816  0D0F  2D08               	goto	u3315
  1817  0D10  082E               	movf	??_UART_Init+3,w
  1818  0D11  00F5               	movwf	___aldiv@divisor+3
  1819  0D12  082D               	movf	??_UART_Init+2,w
  1820  0D13  00F4               	movwf	___aldiv@divisor+2
  1821  0D14  082C               	movf	??_UART_Init+1,w
  1822  0D15  00F3               	movwf	___aldiv@divisor+1
  1823  0D16  082B               	movf	??_UART_Init,w
  1824  0D17  00F2               	movwf	___aldiv@divisor
  1825  0D18  0827               	movf	UART_Init@baudrate,w
  1826  0D19  00AF               	movwf	??_UART_Init+4
  1827  0D1A  0828               	movf	UART_Init@baudrate+1,w
  1828  0D1B  00B0               	movwf	??_UART_Init+5
  1829  0D1C  0829               	movf	UART_Init@baudrate+2,w
  1830  0D1D  00B1               	movwf	??_UART_Init+6
  1831  0D1E  082A               	movf	UART_Init@baudrate+3,w
  1832  0D1F  00B2               	movwf	??_UART_Init+7
  1833  0D20  3006               	movlw	6
  1834  0D21                     u3325:
  1835  0D21  1003               	clrc
  1836  0D22  0DAF               	rlf	??_UART_Init+4,f
  1837  0D23  0DB0               	rlf	??_UART_Init+5,f
  1838  0D24  0DB1               	rlf	??_UART_Init+6,f
  1839  0D25  0DB2               	rlf	??_UART_Init+7,f
  1840  0D26                     u3320:
  1841  0D26  3EFF               	addlw	-1
  1842  0D27  1D03               	skipz
  1843  0D28  2D21               	goto	u3325
  1844  0D29  3000               	movlw	0
  1845  0D2A  00B3               	movwf	??_UART_Init+8
  1846  0D2B  302D               	movlw	45
  1847  0D2C  00B4               	movwf	??_UART_Init+9
  1848  0D2D  3031               	movlw	49
  1849  0D2E  00B5               	movwf	??_UART_Init+10
  1850  0D2F  3001               	movlw	1
  1851  0D30  00B6               	movwf	??_UART_Init+11
  1852  0D31  082F               	movf	??_UART_Init+4,w
  1853  0D32  02B3               	subwf	??_UART_Init+8,f
  1854  0D33  0830               	movf	??_UART_Init+5,w
  1855  0D34  1C03               	skipc
  1856  0D35  0F30               	incfsz	??_UART_Init+5,w
  1857  0D36  2D38               	goto	u3331
  1858  0D37  2D39               	goto	u3332
  1859  0D38                     u3331:
  1860  0D38  02B4               	subwf	??_UART_Init+9,f
  1861  0D39                     u3332:
  1862  0D39  0831               	movf	??_UART_Init+6,w
  1863  0D3A  1C03               	skipc
  1864  0D3B  0F31               	incfsz	??_UART_Init+6,w
  1865  0D3C  2D3E               	goto	u3333
  1866  0D3D  2D3F               	goto	u3334
  1867  0D3E                     u3333:
  1868  0D3E  02B5               	subwf	??_UART_Init+10,f
  1869  0D3F                     u3334:
  1870  0D3F  0832               	movf	??_UART_Init+7,w
  1871  0D40  1C03               	skipc
  1872  0D41  0F32               	incfsz	??_UART_Init+7,w
  1873  0D42  2D44               	goto	u3335
  1874  0D43  2D45               	goto	u3336
  1875  0D44                     u3335:
  1876  0D44  02B6               	subwf	??_UART_Init+11,f
  1877  0D45                     u3336:
  1878  0D45  0836               	movf	??_UART_Init+11,w
  1879  0D46  00F9               	movwf	___aldiv@dividend+3
  1880  0D47  0835               	movf	??_UART_Init+10,w
  1881  0D48  00F8               	movwf	___aldiv@dividend+2
  1882  0D49  0834               	movf	??_UART_Init+9,w
  1883  0D4A  00F7               	movwf	___aldiv@dividend+1
  1884  0D4B  0833               	movf	??_UART_Init+8,w
  1885  0D4C  00F6               	movwf	___aldiv@dividend
  1886  0D4D  120A  118A  2754  120A  158A  	fcall	___aldiv
  1887  0D52  0873               	movf	?___aldiv+1,w
  1888  0D53  1283               	bcf	3,5	;RP0=0, select bank0
  1889  0D54  1303               	bcf	3,6	;RP1=0, select bank0
  1890  0D55  00B8               	movwf	UART_Init@x+1
  1891  0D56  0872               	movf	?___aldiv,w
  1892  0D57  00B7               	movwf	UART_Init@x
  1893  0D58                     l2832:
  1894                           
  1895                           ;./Uart.h: 5:   if(x>255)
  1896  0D58  3001               	movlw	1
  1897  0D59  0238               	subwf	UART_Init@x+1,w
  1898  0D5A  3000               	movlw	0
  1899  0D5B  1903               	skipnz
  1900  0D5C  0237               	subwf	UART_Init@x,w
  1901  0D5D  1C03               	skipc
  1902  0D5E  2D60               	goto	u3341
  1903  0D5F  2D61               	goto	u3340
  1904  0D60                     u3341:
  1905  0D60  2DBD               	goto	l2838
  1906  0D61                     u3340:
  1907  0D61                     l2834:
  1908                           
  1909                           ;./Uart.h: 6:   {;./Uart.h: 7:     x = (20000000 - baudrate*16)/(baudrate*16);
  1910  0D61  0827               	movf	UART_Init@baudrate,w
  1911  0D62  00AB               	movwf	??_UART_Init
  1912  0D63  0828               	movf	UART_Init@baudrate+1,w
  1913  0D64  00AC               	movwf	??_UART_Init+1
  1914  0D65  0829               	movf	UART_Init@baudrate+2,w
  1915  0D66  00AD               	movwf	??_UART_Init+2
  1916  0D67  082A               	movf	UART_Init@baudrate+3,w
  1917  0D68  00AE               	movwf	??_UART_Init+3
  1918  0D69  3004               	movlw	4
  1919  0D6A                     u3355:
  1920  0D6A  1003               	clrc
  1921  0D6B  0DAB               	rlf	??_UART_Init,f
  1922  0D6C  0DAC               	rlf	??_UART_Init+1,f
  1923  0D6D  0DAD               	rlf	??_UART_Init+2,f
  1924  0D6E  0DAE               	rlf	??_UART_Init+3,f
  1925  0D6F                     u3350:
  1926  0D6F  3EFF               	addlw	-1
  1927  0D70  1D03               	skipz
  1928  0D71  2D6A               	goto	u3355
  1929  0D72  082E               	movf	??_UART_Init+3,w
  1930  0D73  00F5               	movwf	___aldiv@divisor+3
  1931  0D74  082D               	movf	??_UART_Init+2,w
  1932  0D75  00F4               	movwf	___aldiv@divisor+2
  1933  0D76  082C               	movf	??_UART_Init+1,w
  1934  0D77  00F3               	movwf	___aldiv@divisor+1
  1935  0D78  082B               	movf	??_UART_Init,w
  1936  0D79  00F2               	movwf	___aldiv@divisor
  1937  0D7A  0827               	movf	UART_Init@baudrate,w
  1938  0D7B  00AF               	movwf	??_UART_Init+4
  1939  0D7C  0828               	movf	UART_Init@baudrate+1,w
  1940  0D7D  00B0               	movwf	??_UART_Init+5
  1941  0D7E  0829               	movf	UART_Init@baudrate+2,w
  1942  0D7F  00B1               	movwf	??_UART_Init+6
  1943  0D80  082A               	movf	UART_Init@baudrate+3,w
  1944  0D81  00B2               	movwf	??_UART_Init+7
  1945  0D82  3004               	movlw	4
  1946  0D83                     u3365:
  1947  0D83  1003               	clrc
  1948  0D84  0DAF               	rlf	??_UART_Init+4,f
  1949  0D85  0DB0               	rlf	??_UART_Init+5,f
  1950  0D86  0DB1               	rlf	??_UART_Init+6,f
  1951  0D87  0DB2               	rlf	??_UART_Init+7,f
  1952  0D88                     u3360:
  1953  0D88  3EFF               	addlw	-1
  1954  0D89  1D03               	skipz
  1955  0D8A  2D83               	goto	u3365
  1956  0D8B  3000               	movlw	0
  1957  0D8C  00B3               	movwf	??_UART_Init+8
  1958  0D8D  302D               	movlw	45
  1959  0D8E  00B4               	movwf	??_UART_Init+9
  1960  0D8F  3031               	movlw	49
  1961  0D90  00B5               	movwf	??_UART_Init+10
  1962  0D91  3001               	movlw	1
  1963  0D92  00B6               	movwf	??_UART_Init+11
  1964  0D93  082F               	movf	??_UART_Init+4,w
  1965  0D94  02B3               	subwf	??_UART_Init+8,f
  1966  0D95  0830               	movf	??_UART_Init+5,w
  1967  0D96  1C03               	skipc
  1968  0D97  0F30               	incfsz	??_UART_Init+5,w
  1969  0D98  2D9A               	goto	u3371
  1970  0D99  2D9B               	goto	u3372
  1971  0D9A                     u3371:
  1972  0D9A  02B4               	subwf	??_UART_Init+9,f
  1973  0D9B                     u3372:
  1974  0D9B  0831               	movf	??_UART_Init+6,w
  1975  0D9C  1C03               	skipc
  1976  0D9D  0F31               	incfsz	??_UART_Init+6,w
  1977  0D9E  2DA0               	goto	u3373
  1978  0D9F  2DA1               	goto	u3374
  1979  0DA0                     u3373:
  1980  0DA0  02B5               	subwf	??_UART_Init+10,f
  1981  0DA1                     u3374:
  1982  0DA1  0832               	movf	??_UART_Init+7,w
  1983  0DA2  1C03               	skipc
  1984  0DA3  0F32               	incfsz	??_UART_Init+7,w
  1985  0DA4  2DA6               	goto	u3375
  1986  0DA5  2DA7               	goto	u3376
  1987  0DA6                     u3375:
  1988  0DA6  02B6               	subwf	??_UART_Init+11,f
  1989  0DA7                     u3376:
  1990  0DA7  0836               	movf	??_UART_Init+11,w
  1991  0DA8  00F9               	movwf	___aldiv@dividend+3
  1992  0DA9  0835               	movf	??_UART_Init+10,w
  1993  0DAA  00F8               	movwf	___aldiv@dividend+2
  1994  0DAB  0834               	movf	??_UART_Init+9,w
  1995  0DAC  00F7               	movwf	___aldiv@dividend+1
  1996  0DAD  0833               	movf	??_UART_Init+8,w
  1997  0DAE  00F6               	movwf	___aldiv@dividend
  1998  0DAF  120A  118A  2754  120A  158A  	fcall	___aldiv
  1999  0DB4  0873               	movf	?___aldiv+1,w
  2000  0DB5  1283               	bcf	3,5	;RP0=0, select bank0
  2001  0DB6  1303               	bcf	3,6	;RP1=0, select bank0
  2002  0DB7  00B8               	movwf	UART_Init@x+1
  2003  0DB8  0872               	movf	?___aldiv,w
  2004  0DB9  00B7               	movwf	UART_Init@x
  2005  0DBA                     l2836:
  2006                           
  2007                           ;./Uart.h: 8:     BRGH = 1;
  2008  0DBA  1683               	bsf	3,5	;RP0=1, select bank1
  2009  0DBB  1303               	bcf	3,6	;RP1=0, select bank1
  2010  0DBC  1518               	bsf	24,2	;volatile
  2011  0DBD                     l2838:
  2012                           
  2013                           ;./Uart.h: 10:   if(x<256)
  2014  0DBD  3001               	movlw	1
  2015  0DBE  1283               	bcf	3,5	;RP0=0, select bank0
  2016  0DBF  0238               	subwf	UART_Init@x+1,w
  2017  0DC0  3000               	movlw	0
  2018  0DC1  1903               	skipnz
  2019  0DC2  0237               	subwf	UART_Init@x,w
  2020  0DC3  1803               	skipnc
  2021  0DC4  2DC6               	goto	u3381
  2022  0DC5  2DC7               	goto	u3380
  2023  0DC6                     u3381:
  2024  0DC6  2DD9               	goto	l53
  2025  0DC7                     u3380:
  2026  0DC7                     l2840:
  2027                           
  2028                           ;./Uart.h: 11:   {;./Uart.h: 12:     SPBRG = x;
  2029  0DC7  0837               	movf	UART_Init@x,w
  2030  0DC8  1683               	bsf	3,5	;RP0=1, select bank1
  2031  0DC9  1303               	bcf	3,6	;RP1=0, select bank1
  2032  0DCA  0099               	movwf	25	;volatile
  2033  0DCB                     l2842:
  2034                           
  2035                           ;./Uart.h: 13:     SYNC = 0;
  2036  0DCB  1218               	bcf	24,4	;volatile
  2037  0DCC                     l2844:
  2038                           
  2039                           ;./Uart.h: 14:     SPEN = 1;
  2040  0DCC  1283               	bcf	3,5	;RP0=0, select bank0
  2041  0DCD  1303               	bcf	3,6	;RP1=0, select bank0
  2042  0DCE  1798               	bsf	24,7	;volatile
  2043  0DCF                     l2846:
  2044                           
  2045                           ;./Uart.h: 15:     TRISC7 = 1;
  2046  0DCF  1683               	bsf	3,5	;RP0=1, select bank1
  2047  0DD0  1303               	bcf	3,6	;RP1=0, select bank1
  2048  0DD1  1787               	bsf	7,7	;volatile
  2049  0DD2                     l2848:
  2050                           
  2051                           ;./Uart.h: 16:     TRISC6 = 1;
  2052  0DD2  1707               	bsf	7,6	;volatile
  2053  0DD3                     l2850:
  2054                           
  2055                           ;./Uart.h: 17:     CREN = 1;
  2056  0DD3  1283               	bcf	3,5	;RP0=0, select bank0
  2057  0DD4  1303               	bcf	3,6	;RP1=0, select bank0
  2058  0DD5  1618               	bsf	24,4	;volatile
  2059  0DD6                     l2852:
  2060                           
  2061                           ;./Uart.h: 18:     TXEN = 1;
  2062  0DD6  1683               	bsf	3,5	;RP0=1, select bank1
  2063  0DD7  1303               	bcf	3,6	;RP1=0, select bank1
  2064  0DD8  1698               	bsf	24,5	;volatile
  2065  0DD9                     l53:
  2066  0DD9  0008               	return
  2067  0DDA                     __end_of_UART_Init:
  2068                           
  2069                           	psect	text3
  2070  0754                     __ptext3:	
  2071 ;; *************** function ___aldiv *****************
  2072 ;; Defined at:
  2073 ;;		line 5 in file "C:\Program Files\Microchip\xc8\v2.30\pic\sources\c90\common\aldiv.c"
  2074 ;; Parameters:    Size  Location     Type
  2075 ;;  divisor         4    2[COMMON] long 
  2076 ;;  dividend        4    6[COMMON] long 
  2077 ;; Auto vars:     Size  Location     Type
  2078 ;;  quotient        4    3[BANK0 ] long 
  2079 ;;  sign            1    2[BANK0 ] unsigned char 
  2080 ;;  counter         1    1[BANK0 ] unsigned char 
  2081 ;; Return value:  Size  Location     Type
  2082 ;;                  4    2[COMMON] long 
  2083 ;; Registers used:
  2084 ;;		wreg, status,2, status,0
  2085 ;; Tracked objects:
  2086 ;;		On entry : 0/0
  2087 ;;		On exit  : 0/0
  2088 ;;		Unchanged: 0/0
  2089 ;; Data sizes:     COMMON   BANK0   BANK1   BANK3   BANK2
  2090 ;;      Params:         8       0       0       0       0
  2091 ;;      Locals:         0       6       0       0       0
  2092 ;;      Temps:          0       1       0       0       0
  2093 ;;      Totals:         8       7       0       0       0
  2094 ;;Total ram usage:       15 bytes
  2095 ;; Hardware stack levels used:    1
  2096 ;; Hardware stack levels required when called:    1
  2097 ;; This function calls:
  2098 ;;		Nothing
  2099 ;; This function is called by:
  2100 ;;		_UART_Init
  2101 ;;		_PWM_Max_Duty
  2102 ;;		_PWM1_Init_Fre
  2103 ;;		_PWM2_Init_Fre
  2104 ;; This function uses a non-reentrant model
  2105 ;;
  2106                           
  2107                           
  2108                           ;psect for function ___aldiv
  2109  0754                     ___aldiv:
  2110  0754                     l2790:	
  2111                           ;incstack = 0
  2112                           ; Regs used in ___aldiv: [wreg+status,2+status,0]
  2113                           
  2114  0754  1283               	bcf	3,5	;RP0=0, select bank0
  2115  0755  1303               	bcf	3,6	;RP1=0, select bank0
  2116  0756  01A2               	clrf	___aldiv@sign
  2117  0757                     l2792:
  2118  0757  1FF5               	btfss	___aldiv@divisor+3,7
  2119  0758  2F5A               	goto	u3211
  2120  0759  2F5B               	goto	u3210
  2121  075A                     u3211:
  2122  075A  2F68               	goto	l514
  2123  075B                     u3210:
  2124  075B                     l2794:
  2125  075B  09F2               	comf	___aldiv@divisor,f
  2126  075C  09F3               	comf	___aldiv@divisor+1,f
  2127  075D  09F4               	comf	___aldiv@divisor+2,f
  2128  075E  09F5               	comf	___aldiv@divisor+3,f
  2129  075F  0AF2               	incf	___aldiv@divisor,f
  2130  0760  1903               	skipnz
  2131  0761  0AF3               	incf	___aldiv@divisor+1,f
  2132  0762  1903               	skipnz
  2133  0763  0AF4               	incf	___aldiv@divisor+2,f
  2134  0764  1903               	skipnz
  2135  0765  0AF5               	incf	___aldiv@divisor+3,f
  2136  0766  01A2               	clrf	___aldiv@sign
  2137  0767  0AA2               	incf	___aldiv@sign,f
  2138  0768                     l514:
  2139  0768  1FF9               	btfss	___aldiv@dividend+3,7
  2140  0769  2F6B               	goto	u3221
  2141  076A  2F6C               	goto	u3220
  2142  076B                     u3221:
  2143  076B  2F7B               	goto	l2800
  2144  076C                     u3220:
  2145  076C                     l2796:
  2146  076C  09F6               	comf	___aldiv@dividend,f
  2147  076D  09F7               	comf	___aldiv@dividend+1,f
  2148  076E  09F8               	comf	___aldiv@dividend+2,f
  2149  076F  09F9               	comf	___aldiv@dividend+3,f
  2150  0770  0AF6               	incf	___aldiv@dividend,f
  2151  0771  1903               	skipnz
  2152  0772  0AF7               	incf	___aldiv@dividend+1,f
  2153  0773  1903               	skipnz
  2154  0774  0AF8               	incf	___aldiv@dividend+2,f
  2155  0775  1903               	skipnz
  2156  0776  0AF9               	incf	___aldiv@dividend+3,f
  2157  0777                     l2798:
  2158  0777  3001               	movlw	1
  2159  0778  00A0               	movwf	??___aldiv
  2160  0779  0820               	movf	??___aldiv,w
  2161  077A  06A2               	xorwf	___aldiv@sign,f
  2162  077B                     l2800:
  2163  077B  3000               	movlw	0
  2164  077C  00A6               	movwf	___aldiv@quotient+3
  2165  077D  3000               	movlw	0
  2166  077E  00A5               	movwf	___aldiv@quotient+2
  2167  077F  3000               	movlw	0
  2168  0780  00A4               	movwf	___aldiv@quotient+1
  2169  0781  3000               	movlw	0
  2170  0782  00A3               	movwf	___aldiv@quotient
  2171  0783                     l2802:
  2172  0783  0875               	movf	___aldiv@divisor+3,w
  2173  0784  0474               	iorwf	___aldiv@divisor+2,w
  2174  0785  0473               	iorwf	___aldiv@divisor+1,w
  2175  0786  0472               	iorwf	___aldiv@divisor,w
  2176  0787  1903               	skipnz
  2177  0788  2F8A               	goto	u3231
  2178  0789  2F8B               	goto	u3230
  2179  078A                     u3231:
  2180  078A  2FD8               	goto	l2822
  2181  078B                     u3230:
  2182  078B                     l2804:
  2183  078B  01A1               	clrf	___aldiv@counter
  2184  078C  0AA1               	incf	___aldiv@counter,f
  2185  078D  2F9B               	goto	l2808
  2186  078E                     l2806:
  2187  078E  3001               	movlw	1
  2188  078F  00A0               	movwf	??___aldiv
  2189  0790                     u3245:
  2190  0790  1003               	clrc
  2191  0791  0DF2               	rlf	___aldiv@divisor,f
  2192  0792  0DF3               	rlf	___aldiv@divisor+1,f
  2193  0793  0DF4               	rlf	___aldiv@divisor+2,f
  2194  0794  0DF5               	rlf	___aldiv@divisor+3,f
  2195  0795  0BA0               	decfsz	??___aldiv,f
  2196  0796  2F90               	goto	u3245
  2197  0797  3001               	movlw	1
  2198  0798  00A0               	movwf	??___aldiv
  2199  0799  0820               	movf	??___aldiv,w
  2200  079A  07A1               	addwf	___aldiv@counter,f
  2201  079B                     l2808:
  2202  079B  1FF5               	btfss	___aldiv@divisor+3,7
  2203  079C  2F9E               	goto	u3251
  2204  079D  2F9F               	goto	u3250
  2205  079E                     u3251:
  2206  079E  2F8E               	goto	l2806
  2207  079F                     u3250:
  2208  079F                     l2810:
  2209  079F  3001               	movlw	1
  2210  07A0  00A0               	movwf	??___aldiv
  2211  07A1                     u3265:
  2212  07A1  1003               	clrc
  2213  07A2  0DA3               	rlf	___aldiv@quotient,f
  2214  07A3  0DA4               	rlf	___aldiv@quotient+1,f
  2215  07A4  0DA5               	rlf	___aldiv@quotient+2,f
  2216  07A5  0DA6               	rlf	___aldiv@quotient+3,f
  2217  07A6  0BA0               	decfsz	??___aldiv,f
  2218  07A7  2FA1               	goto	u3265
  2219  07A8                     l2812:
  2220  07A8  0875               	movf	___aldiv@divisor+3,w
  2221  07A9  0279               	subwf	___aldiv@dividend+3,w
  2222  07AA  1D03               	skipz
  2223  07AB  2FB6               	goto	u3275
  2224  07AC  0874               	movf	___aldiv@divisor+2,w
  2225  07AD  0278               	subwf	___aldiv@dividend+2,w
  2226  07AE  1D03               	skipz
  2227  07AF  2FB6               	goto	u3275
  2228  07B0  0873               	movf	___aldiv@divisor+1,w
  2229  07B1  0277               	subwf	___aldiv@dividend+1,w
  2230  07B2  1D03               	skipz
  2231  07B3  2FB6               	goto	u3275
  2232  07B4  0872               	movf	___aldiv@divisor,w
  2233  07B5  0276               	subwf	___aldiv@dividend,w
  2234  07B6                     u3275:
  2235  07B6  1C03               	skipc
  2236  07B7  2FB9               	goto	u3271
  2237  07B8  2FBA               	goto	u3270
  2238  07B9                     u3271:
  2239  07B9  2FC9               	goto	l2818
  2240  07BA                     u3270:
  2241  07BA                     l2814:
  2242  07BA  0872               	movf	___aldiv@divisor,w
  2243  07BB  02F6               	subwf	___aldiv@dividend,f
  2244  07BC  0873               	movf	___aldiv@divisor+1,w
  2245  07BD  1C03               	skipc
  2246  07BE  0F73               	incfsz	___aldiv@divisor+1,w
  2247  07BF  02F7               	subwf	___aldiv@dividend+1,f
  2248  07C0  0874               	movf	___aldiv@divisor+2,w
  2249  07C1  1C03               	skipc
  2250  07C2  0F74               	incfsz	___aldiv@divisor+2,w
  2251  07C3  02F8               	subwf	___aldiv@dividend+2,f
  2252  07C4  0875               	movf	___aldiv@divisor+3,w
  2253  07C5  1C03               	skipc
  2254  07C6  0F75               	incfsz	___aldiv@divisor+3,w
  2255  07C7  02F9               	subwf	___aldiv@dividend+3,f
  2256  07C8                     l2816:
  2257  07C8  1423               	bsf	___aldiv@quotient,0
  2258  07C9                     l2818:
  2259  07C9  3001               	movlw	1
  2260  07CA                     u3285:
  2261  07CA  1003               	clrc
  2262  07CB  0CF5               	rrf	___aldiv@divisor+3,f
  2263  07CC  0CF4               	rrf	___aldiv@divisor+2,f
  2264  07CD  0CF3               	rrf	___aldiv@divisor+1,f
  2265  07CE  0CF2               	rrf	___aldiv@divisor,f
  2266  07CF  3EFF               	addlw	-1
  2267  07D0  1D03               	skipz
  2268  07D1  2FCA               	goto	u3285
  2269  07D2                     l2820:
  2270  07D2  3001               	movlw	1
  2271  07D3  02A1               	subwf	___aldiv@counter,f
  2272  07D4  1D03               	btfss	3,2
  2273  07D5  2FD7               	goto	u3291
  2274  07D6  2FD8               	goto	u3290
  2275  07D7                     u3291:
  2276  07D7  2F9F               	goto	l2810
  2277  07D8                     u3290:
  2278  07D8                     l2822:
  2279  07D8  0822               	movf	___aldiv@sign,w
  2280  07D9  1903               	btfsc	3,2
  2281  07DA  2FDC               	goto	u3301
  2282  07DB  2FDD               	goto	u3300
  2283  07DC                     u3301:
  2284  07DC  2FE8               	goto	l2826
  2285  07DD                     u3300:
  2286  07DD                     l2824:
  2287  07DD  09A3               	comf	___aldiv@quotient,f
  2288  07DE  09A4               	comf	___aldiv@quotient+1,f
  2289  07DF  09A5               	comf	___aldiv@quotient+2,f
  2290  07E0  09A6               	comf	___aldiv@quotient+3,f
  2291  07E1  0AA3               	incf	___aldiv@quotient,f
  2292  07E2  1903               	skipnz
  2293  07E3  0AA4               	incf	___aldiv@quotient+1,f
  2294  07E4  1903               	skipnz
  2295  07E5  0AA5               	incf	___aldiv@quotient+2,f
  2296  07E6  1903               	skipnz
  2297  07E7  0AA6               	incf	___aldiv@quotient+3,f
  2298  07E8                     l2826:
  2299  07E8  0826               	movf	___aldiv@quotient+3,w
  2300  07E9  00F5               	movwf	?___aldiv+3
  2301  07EA  0825               	movf	___aldiv@quotient+2,w
  2302  07EB  00F4               	movwf	?___aldiv+2
  2303  07EC  0824               	movf	___aldiv@quotient+1,w
  2304  07ED  00F3               	movwf	?___aldiv+1
  2305  07EE  0823               	movf	___aldiv@quotient,w
  2306  07EF  00F2               	movwf	?___aldiv
  2307  07F0                     l524:
  2308  07F0  0008               	return
  2309  07F1                     __end_of___aldiv:
  2310                           
  2311                           	psect	text4
  2312  0B56                     __ptext4:	
  2313 ;; *************** function _TMR0_Unit *****************
  2314 ;; Defined at:
  2315 ;;		line 5 in file "Timer.c"
  2316 ;; Parameters:    Size  Location     Type
  2317 ;;		None
  2318 ;; Auto vars:     Size  Location     Type
  2319 ;;		None
  2320 ;; Return value:  Size  Location     Type
  2321 ;;                  1    wreg      void 
  2322 ;; Registers used:
  2323 ;;		wreg
  2324 ;; Tracked objects:
  2325 ;;		On entry : 0/0
  2326 ;;		On exit  : 0/0
  2327 ;;		Unchanged: 0/0
  2328 ;; Data sizes:     COMMON   BANK0   BANK1   BANK3   BANK2
  2329 ;;      Params:         0       0       0       0       0
  2330 ;;      Locals:         0       0       0       0       0
  2331 ;;      Temps:          0       0       0       0       0
  2332 ;;      Totals:         0       0       0       0       0
  2333 ;;Total ram usage:        0 bytes
  2334 ;; Hardware stack levels used:    1
  2335 ;; Hardware stack levels required when called:    1
  2336 ;; This function calls:
  2337 ;;		Nothing
  2338 ;; This function is called by:
  2339 ;;		_main
  2340 ;; This function uses a non-reentrant model
  2341 ;;
  2342                           
  2343                           
  2344                           ;psect for function _TMR0_Unit
  2345  0B56                     _TMR0_Unit:
  2346  0B56                     l2004:	
  2347                           ;incstack = 0
  2348                           ; Regs used in _TMR0_Unit: [wreg]
  2349                           
  2350                           
  2351                           ;Timer.c: 7:     INTCONbits.GIE = 1;
  2352  0B56  178B               	bsf	11,7	;volatile
  2353                           
  2354                           ;Timer.c: 8:     INTCONbits.PEIE = 1;
  2355  0B57  170B               	bsf	11,6	;volatile
  2356                           
  2357                           ;Timer.c: 9:     INTCONbits.TMR0IE = 1;
  2358  0B58  168B               	bsf	11,5	;volatile
  2359                           
  2360                           ;Timer.c: 10:     INTCONbits.TMR0IF = 0;
  2361  0B59  110B               	bcf	11,2	;volatile
  2362                           
  2363                           ;Timer.c: 12:     (INTCONbits.GIE = 1);
  2364  0B5A  178B               	bsf	11,7	;volatile
  2365  0B5B                     l2006:
  2366                           
  2367                           ;Timer.c: 14:     TMR0=251;
  2368  0B5B  30FB               	movlw	251
  2369  0B5C  1283               	bcf	3,5	;RP0=0, select bank0
  2370  0B5D  1303               	bcf	3,6	;RP1=0, select bank0
  2371  0B5E  0081               	movwf	1	;volatile
  2372  0B5F                     l2008:
  2373                           
  2374                           ;Timer.c: 15:     OPTION_REGbits.T0CS=0;
  2375  0B5F  1683               	bsf	3,5	;RP0=1, select bank1
  2376  0B60  1303               	bcf	3,6	;RP1=0, select bank1
  2377  0B61  1281               	bcf	1,5	;volatile
  2378  0B62                     l2010:
  2379                           
  2380                           ;Timer.c: 16:     OPTION_REGbits.T0SE=0;
  2381  0B62  1201               	bcf	1,4	;volatile
  2382  0B63                     l2012:
  2383                           
  2384                           ;Timer.c: 17:     OPTION_REGbits.PSA=0;
  2385  0B63  1181               	bcf	1,3	;volatile
  2386  0B64                     l2014:
  2387                           
  2388                           ;Timer.c: 19:     OPTION_REGbits.PS0=1;
  2389  0B64  1401               	bsf	1,0	;volatile
  2390  0B65                     l2016:
  2391                           
  2392                           ;Timer.c: 20:     OPTION_REGbits.PS1=1;
  2393  0B65  1481               	bsf	1,1	;volatile
  2394  0B66                     l2018:
  2395                           
  2396                           ;Timer.c: 21:     OPTION_REGbits.PS2=1;
  2397  0B66  1501               	bsf	1,2	;volatile
  2398  0B67                     l274:
  2399  0B67  0008               	return
  2400  0B68                     __end_of_TMR0_Unit:
  2401                           
  2402                           	psect	text5
  2403  0BBE                     __ptext5:	
  2404 ;; *************** function _Lcd_Write_String *****************
  2405 ;; Defined at:
  2406 ;;		line 101 in file "Lcd.c"
  2407 ;; Parameters:    Size  Location     Type
  2408 ;;  a               1    wreg     PTR unsigned char 
  2409 ;;		 -> STR_30(2), STR_27(2), STR_24(2), STR_23(2), 
  2410 ;;		 -> STR_22(2), STR_21(2), STR_20(2), STR_19(2), 
  2411 ;;		 -> STR_18(2), STR_17(2), STR_16(10), STR_15(10), 
  2412 ;;		 -> STR_14(4), STR_13(4), STR_12(4), STR_11(4), 
  2413 ;;		 -> STR_10(2), STR_9(7), STR_8(7), STR_7(7), 
  2414 ;;		 -> STR_6(7), STR_5(7), STR_4(7), STR_3(7), 
  2415 ;;		 -> STR_2(7), STR_1(7), 
  2416 ;; Auto vars:     Size  Location     Type
  2417 ;;  a               1    9[COMMON] PTR unsigned char 
  2418 ;;		 -> STR_30(2), STR_27(2), STR_24(2), STR_23(2), 
  2419 ;;		 -> STR_22(2), STR_21(2), STR_20(2), STR_19(2), 
  2420 ;;		 -> STR_18(2), STR_17(2), STR_16(10), STR_15(10), 
  2421 ;;		 -> STR_14(4), STR_13(4), STR_12(4), STR_11(4), 
  2422 ;;		 -> STR_10(2), STR_9(7), STR_8(7), STR_7(7), 
  2423 ;;		 -> STR_6(7), STR_5(7), STR_4(7), STR_3(7), 
  2424 ;;		 -> STR_2(7), STR_1(7), 
  2425 ;;  i               2    7[COMMON] int 
  2426 ;; Return value:  Size  Location     Type
  2427 ;;                  1    wreg      void 
  2428 ;; Registers used:
  2429 ;;		wreg, fsr0l, fsr0h, status,2, status,0, pclath, cstack
  2430 ;; Tracked objects:
  2431 ;;		On entry : 0/0
  2432 ;;		On exit  : 0/0
  2433 ;;		Unchanged: 0/0
  2434 ;; Data sizes:     COMMON   BANK0   BANK1   BANK3   BANK2
  2435 ;;      Params:         0       0       0       0       0
  2436 ;;      Locals:         3       0       0       0       0
  2437 ;;      Temps:          0       0       0       0       0
  2438 ;;      Totals:         3       0       0       0       0
  2439 ;;Total ram usage:        3 bytes
  2440 ;; Hardware stack levels used:    1
  2441 ;; Hardware stack levels required when called:    3
  2442 ;; This function calls:
  2443 ;;		_Lcd_Write_Char
  2444 ;; This function is called by:
  2445 ;;		_main
  2446 ;;		_Lcd_Time
  2447 ;; This function uses a non-reentrant model
  2448 ;;
  2449                           
  2450                           
  2451                           ;psect for function _Lcd_Write_String
  2452  0BBE                     _Lcd_Write_String:
  2453                           
  2454                           ;incstack = 0
  2455                           ; Regs used in _Lcd_Write_String: [wreg-fsr0h+status,2+status,0+pclath+cstack]
  2456                           ;Lcd_Write_String@a stored from wreg
  2457  0BBE  00F9               	movwf	Lcd_Write_String@a
  2458  0BBF                     l2052:
  2459                           
  2460                           ;Lcd.c: 101: void Lcd_Write_String(char *a);Lcd.c: 102: {;Lcd.c: 103:  int i;;Lcd.c: 104
      +                          :  for(i=0;a[i]!='\0';i++)
  2461  0BBF  01F7               	clrf	Lcd_Write_String@i
  2462  0BC0  01F8               	clrf	Lcd_Write_String@i+1
  2463  0BC1  2BD5               	goto	l2058
  2464  0BC2                     l2054:
  2465                           
  2466                           ;Lcd.c: 105:     Lcd_Write_Char(a[i]);
  2467  0BC2  0877               	movf	Lcd_Write_String@i,w
  2468  0BC3  0779               	addwf	Lcd_Write_String@a,w
  2469  0BC4  0084               	movwf	4
  2470  0BC5  120A  158A  2000  120A  158A  	fcall	stringdir
  2471  0BCA  120A  158A  240E  120A  158A  	fcall	_Lcd_Write_Char
  2472  0BCF                     l2056:
  2473  0BCF  3001               	movlw	1
  2474  0BD0  07F7               	addwf	Lcd_Write_String@i,f
  2475  0BD1  1803               	skipnc
  2476  0BD2  0AF8               	incf	Lcd_Write_String@i+1,f
  2477  0BD3  3000               	movlw	0
  2478  0BD4  07F8               	addwf	Lcd_Write_String@i+1,f
  2479  0BD5                     l2058:
  2480  0BD5  0877               	movf	Lcd_Write_String@i,w
  2481  0BD6  0779               	addwf	Lcd_Write_String@a,w
  2482  0BD7  0084               	movwf	4
  2483  0BD8  120A  158A  2000  120A  158A  	fcall	stringdir
  2484  0BDD  3A00               	xorlw	0
  2485  0BDE  1D03               	skipz
  2486  0BDF  2BE1               	goto	u1911
  2487  0BE0  2BE2               	goto	u1910
  2488  0BE1                     u1911:
  2489  0BE1  2BC2               	goto	l2054
  2490  0BE2                     u1910:
  2491  0BE2                     l250:
  2492  0BE2  0008               	return
  2493  0BE3                     __end_of_Lcd_Write_String:
  2494                           
  2495                           	psect	text6
  2496  0C0E                     __ptext6:	
  2497 ;; *************** function _Lcd_Write_Char *****************
  2498 ;; Defined at:
  2499 ;;		line 85 in file "Lcd.c"
  2500 ;; Parameters:    Size  Location     Type
  2501 ;;  a               1    wreg     unsigned char 
  2502 ;; Auto vars:     Size  Location     Type
  2503 ;;  a               1    6[COMMON] unsigned char 
  2504 ;;  y               1    5[COMMON] unsigned char 
  2505 ;;  temp            1    4[COMMON] unsigned char 
  2506 ;; Return value:  Size  Location     Type
  2507 ;;                  1    wreg      void 
  2508 ;; Registers used:
  2509 ;;		wreg, status,2, status,0, pclath, cstack
  2510 ;; Tracked objects:
  2511 ;;		On entry : 0/0
  2512 ;;		On exit  : 0/0
  2513 ;;		Unchanged: 0/0
  2514 ;; Data sizes:     COMMON   BANK0   BANK1   BANK3   BANK2
  2515 ;;      Params:         0       0       0       0       0
  2516 ;;      Locals:         3       0       0       0       0
  2517 ;;      Temps:          1       0       0       0       0
  2518 ;;      Totals:         4       0       0       0       0
  2519 ;;Total ram usage:        4 bytes
  2520 ;; Hardware stack levels used:    1
  2521 ;; Hardware stack levels required when called:    2
  2522 ;; This function calls:
  2523 ;;		_Lcd_Port
  2524 ;; This function is called by:
  2525 ;;		_Lcd_Write_String
  2526 ;; This function uses a non-reentrant model
  2527 ;;
  2528                           
  2529                           
  2530                           ;psect for function _Lcd_Write_Char
  2531  0C0E                     _Lcd_Write_Char:
  2532                           
  2533                           ;incstack = 0
  2534                           ; Regs used in _Lcd_Write_Char: [wreg+status,2+status,0+pclath+cstack]
  2535                           ;Lcd_Write_Char@a stored from wreg
  2536  0C0E  00F6               	movwf	Lcd_Write_Char@a
  2537  0C0F                     l1914:
  2538                           
  2539                           ;Lcd.c: 85: void Lcd_Write_Char(char a);Lcd.c: 86: {;Lcd.c: 87:    char temp,y;;Lcd.c: 8
      +                          8:    temp = a&0x0F;
  2540  0C0F  0876               	movf	Lcd_Write_Char@a,w
  2541  0C10  390F               	andlw	15
  2542  0C11  00F3               	movwf	??_Lcd_Write_Char
  2543  0C12  0873               	movf	??_Lcd_Write_Char,w
  2544  0C13  00F4               	movwf	Lcd_Write_Char@temp
  2545                           
  2546                           ;Lcd.c: 89:    y = a&0xF0;
  2547  0C14  0876               	movf	Lcd_Write_Char@a,w
  2548  0C15  39F0               	andlw	240
  2549  0C16  00F3               	movwf	??_Lcd_Write_Char
  2550  0C17  0873               	movf	??_Lcd_Write_Char,w
  2551  0C18  00F5               	movwf	Lcd_Write_Char@y
  2552  0C19                     l1916:
  2553                           
  2554                           ;Lcd.c: 90:    RD0 = 1;
  2555  0C19  1283               	bcf	3,5	;RP0=0, select bank0
  2556  0C1A  1303               	bcf	3,6	;RP1=0, select bank0
  2557  0C1B  1408               	bsf	8,0	;volatile
  2558  0C1C                     l1918:
  2559                           
  2560                           ;Lcd.c: 91:    Lcd_Port(y>>4);
  2561  0C1C  0875               	movf	Lcd_Write_Char@y,w
  2562  0C1D  00F3               	movwf	??_Lcd_Write_Char
  2563  0C1E  3004               	movlw	4
  2564  0C1F                     u1675:
  2565  0C1F  1003               	clrc
  2566  0C20  0CF3               	rrf	??_Lcd_Write_Char,f
  2567  0C21  3EFF               	addlw	-1
  2568  0C22  1D03               	skipz
  2569  0C23  2C1F               	goto	u1675
  2570  0C24  0873               	movf	??_Lcd_Write_Char,w
  2571  0C25  120A  158A  239D  120A  158A  	fcall	_Lcd_Port
  2572  0C2A                     l1920:
  2573                           
  2574                           ;Lcd.c: 92:    RD2 = 1;
  2575  0C2A  1283               	bcf	3,5	;RP0=0, select bank0
  2576  0C2B  1303               	bcf	3,6	;RP1=0, select bank0
  2577  0C2C  1508               	bsf	8,2	;volatile
  2578  0C2D                     l1922:
  2579                           
  2580                           ;Lcd.c: 93:    _delay((unsigned long)((40)*(20000000/4000000.0)));
  2581  0C2D  3042               	movlw	66
  2582  0C2E  00F3               	movwf	??_Lcd_Write_Char
  2583  0C2F                     u4827:
  2584  0C2F  0BF3               	decfsz	??_Lcd_Write_Char,f
  2585  0C30  2C2F               	goto	u4827
  2586  0C31  0000               	nop
  2587  0C32                     l1924:
  2588                           
  2589                           ;Lcd.c: 94:    RD2 = 0;
  2590  0C32  1283               	bcf	3,5	;RP0=0, select bank0
  2591  0C33  1303               	bcf	3,6	;RP1=0, select bank0
  2592  0C34  1108               	bcf	8,2	;volatile
  2593  0C35                     l1926:
  2594                           
  2595                           ;Lcd.c: 95:    Lcd_Port(temp);
  2596  0C35  0874               	movf	Lcd_Write_Char@temp,w
  2597  0C36  120A  158A  239D  120A  158A  	fcall	_Lcd_Port
  2598  0C3B                     l1928:
  2599                           
  2600                           ;Lcd.c: 96:    RD2 = 1;
  2601  0C3B  1283               	bcf	3,5	;RP0=0, select bank0
  2602  0C3C  1303               	bcf	3,6	;RP1=0, select bank0
  2603  0C3D  1508               	bsf	8,2	;volatile
  2604  0C3E                     l1930:
  2605                           
  2606                           ;Lcd.c: 97:    _delay((unsigned long)((40)*(20000000/4000000.0)));
  2607  0C3E  3042               	movlw	66
  2608  0C3F  00F3               	movwf	??_Lcd_Write_Char
  2609  0C40                     u4837:
  2610  0C40  0BF3               	decfsz	??_Lcd_Write_Char,f
  2611  0C41  2C40               	goto	u4837
  2612  0C42  0000               	nop
  2613  0C43                     l1932:
  2614                           
  2615                           ;Lcd.c: 98:    RD2 = 0;
  2616  0C43  1283               	bcf	3,5	;RP0=0, select bank0
  2617  0C44  1303               	bcf	3,6	;RP1=0, select bank0
  2618  0C45  1108               	bcf	8,2	;volatile
  2619  0C46                     l244:
  2620  0C46  0008               	return
  2621  0C47                     __end_of_Lcd_Write_Char:
  2622                           
  2623                           	psect	text7
  2624  0C47                     __ptext7:	
  2625 ;; *************** function _Lcd_Set_Cursor *****************
  2626 ;; Defined at:
  2627 ;;		line 45 in file "Lcd.c"
  2628 ;; Parameters:    Size  Location     Type
  2629 ;;  a               1    wreg     unsigned char 
  2630 ;;  b               1    6[COMMON] unsigned char 
  2631 ;; Auto vars:     Size  Location     Type
  2632 ;;  a               1    0[BANK0 ] unsigned char 
  2633 ;;  temp            1    3[BANK0 ] unsigned char 
  2634 ;;  y               1    2[BANK0 ] unsigned char 
  2635 ;;  z               1    1[BANK0 ] unsigned char 
  2636 ;; Return value:  Size  Location     Type
  2637 ;;                  1    wreg      void 
  2638 ;; Registers used:
  2639 ;;		wreg, status,2, status,0, pclath, cstack
  2640 ;; Tracked objects:
  2641 ;;		On entry : 0/0
  2642 ;;		On exit  : 0/0
  2643 ;;		Unchanged: 0/0
  2644 ;; Data sizes:     COMMON   BANK0   BANK1   BANK3   BANK2
  2645 ;;      Params:         1       0       0       0       0
  2646 ;;      Locals:         0       4       0       0       0
  2647 ;;      Temps:          2       0       0       0       0
  2648 ;;      Totals:         3       4       0       0       0
  2649 ;;Total ram usage:        7 bytes
  2650 ;; Hardware stack levels used:    1
  2651 ;; Hardware stack levels required when called:    3
  2652 ;; This function calls:
  2653 ;;		_Lcd_Cmd
  2654 ;; This function is called by:
  2655 ;;		_main
  2656 ;;		_Lcd_Time
  2657 ;; This function uses a non-reentrant model
  2658 ;;
  2659                           
  2660                           
  2661                           ;psect for function _Lcd_Set_Cursor
  2662  0C47                     _Lcd_Set_Cursor:
  2663                           
  2664                           ;incstack = 0
  2665                           ; Regs used in _Lcd_Set_Cursor: [wreg+status,2+status,0+pclath+cstack]
  2666                           ;Lcd_Set_Cursor@a stored from wreg
  2667  0C47  1283               	bcf	3,5	;RP0=0, select bank0
  2668  0C48  1303               	bcf	3,6	;RP1=0, select bank0
  2669  0C49  00A0               	movwf	Lcd_Set_Cursor@a
  2670  0C4A                     l2032:
  2671                           
  2672                           ;Lcd.c: 45: void Lcd_Set_Cursor(char a, char b);Lcd.c: 46: {;Lcd.c: 47:  char temp,z,y;;
      +                          Lcd.c: 48:  if(a == 1)
  2673  0C4A  0320               	decf	Lcd_Set_Cursor@a,w
  2674  0C4B  1D03               	btfss	3,2
  2675  0C4C  2C4E               	goto	u1871
  2676  0C4D  2C4F               	goto	u1870
  2677  0C4E                     u1871:
  2678  0C4E  2C74               	goto	l2042
  2679  0C4F                     u1870:
  2680  0C4F                     l2034:
  2681                           
  2682                           ;Lcd.c: 49:  {;Lcd.c: 50:    temp = 0x80 + b - 1;
  2683  0C4F  0876               	movf	Lcd_Set_Cursor@b,w
  2684  0C50  3E7F               	addlw	127
  2685  0C51  00F7               	movwf	??_Lcd_Set_Cursor
  2686  0C52  0877               	movf	??_Lcd_Set_Cursor,w
  2687  0C53  00A3               	movwf	Lcd_Set_Cursor@temp
  2688                           
  2689                           ;Lcd.c: 51:   z = temp>>4;
  2690  0C54  0823               	movf	Lcd_Set_Cursor@temp,w
  2691  0C55  00F7               	movwf	??_Lcd_Set_Cursor
  2692  0C56  3004               	movlw	4
  2693  0C57                     u1885:
  2694  0C57  1003               	clrc
  2695  0C58  0CF7               	rrf	??_Lcd_Set_Cursor,f
  2696  0C59  3EFF               	addlw	-1
  2697  0C5A  1D03               	skipz
  2698  0C5B  2C57               	goto	u1885
  2699  0C5C  0877               	movf	??_Lcd_Set_Cursor,w
  2700  0C5D  00F8               	movwf	??_Lcd_Set_Cursor+1
  2701  0C5E  0878               	movf	??_Lcd_Set_Cursor+1,w
  2702  0C5F  00A1               	movwf	Lcd_Set_Cursor@z
  2703  0C60                     l2036:
  2704                           
  2705                           ;Lcd.c: 52:   y = temp & 0x0F;
  2706  0C60  0823               	movf	Lcd_Set_Cursor@temp,w
  2707  0C61  390F               	andlw	15
  2708  0C62  00F7               	movwf	??_Lcd_Set_Cursor
  2709  0C63  0877               	movf	??_Lcd_Set_Cursor,w
  2710  0C64  00A2               	movwf	Lcd_Set_Cursor@y
  2711  0C65                     l2038:
  2712                           
  2713                           ;Lcd.c: 53:   Lcd_Cmd(z);
  2714  0C65  0821               	movf	Lcd_Set_Cursor@z,w
  2715  0C66  120A  158A  2368  120A  158A  	fcall	_Lcd_Cmd
  2716  0C6B                     l2040:
  2717                           
  2718                           ;Lcd.c: 54:   Lcd_Cmd(y);
  2719  0C6B  1283               	bcf	3,5	;RP0=0, select bank0
  2720  0C6C  1303               	bcf	3,6	;RP1=0, select bank0
  2721  0C6D  0822               	movf	Lcd_Set_Cursor@y,w
  2722  0C6E  120A  158A  2368  120A  158A  	fcall	_Lcd_Cmd
  2723                           
  2724                           ;Lcd.c: 55:  }
  2725  0C73  2C9E               	goto	l238
  2726  0C74                     l2042:
  2727  0C74  3002               	movlw	2
  2728  0C75  0620               	xorwf	Lcd_Set_Cursor@a,w
  2729  0C76  1D03               	btfss	3,2
  2730  0C77  2C79               	goto	u1891
  2731  0C78  2C7A               	goto	u1890
  2732  0C79                     u1891:
  2733  0C79  2C9E               	goto	l238
  2734  0C7A                     u1890:
  2735  0C7A                     l2044:
  2736                           
  2737                           ;Lcd.c: 57:  {;Lcd.c: 58:   temp = 0xC0 + b - 1;
  2738  0C7A  0876               	movf	Lcd_Set_Cursor@b,w
  2739  0C7B  3EBF               	addlw	191
  2740  0C7C  00F7               	movwf	??_Lcd_Set_Cursor
  2741  0C7D  0877               	movf	??_Lcd_Set_Cursor,w
  2742  0C7E  00A3               	movwf	Lcd_Set_Cursor@temp
  2743                           
  2744                           ;Lcd.c: 59:   z = temp>>4;
  2745  0C7F  0823               	movf	Lcd_Set_Cursor@temp,w
  2746  0C80  00F7               	movwf	??_Lcd_Set_Cursor
  2747  0C81  3004               	movlw	4
  2748  0C82                     u1905:
  2749  0C82  1003               	clrc
  2750  0C83  0CF7               	rrf	??_Lcd_Set_Cursor,f
  2751  0C84  3EFF               	addlw	-1
  2752  0C85  1D03               	skipz
  2753  0C86  2C82               	goto	u1905
  2754  0C87  0877               	movf	??_Lcd_Set_Cursor,w
  2755  0C88  00F8               	movwf	??_Lcd_Set_Cursor+1
  2756  0C89  0878               	movf	??_Lcd_Set_Cursor+1,w
  2757  0C8A  00A1               	movwf	Lcd_Set_Cursor@z
  2758  0C8B                     l2046:
  2759                           
  2760                           ;Lcd.c: 60:   y = temp & 0x0F;
  2761  0C8B  0823               	movf	Lcd_Set_Cursor@temp,w
  2762  0C8C  390F               	andlw	15
  2763  0C8D  00F7               	movwf	??_Lcd_Set_Cursor
  2764  0C8E  0877               	movf	??_Lcd_Set_Cursor,w
  2765  0C8F  00A2               	movwf	Lcd_Set_Cursor@y
  2766  0C90                     l2048:
  2767                           
  2768                           ;Lcd.c: 61:   Lcd_Cmd(z);
  2769  0C90  0821               	movf	Lcd_Set_Cursor@z,w
  2770  0C91  120A  158A  2368  120A  158A  	fcall	_Lcd_Cmd
  2771  0C96                     l2050:
  2772                           
  2773                           ;Lcd.c: 62:   Lcd_Cmd(y);
  2774  0C96  1283               	bcf	3,5	;RP0=0, select bank0
  2775  0C97  1303               	bcf	3,6	;RP1=0, select bank0
  2776  0C98  0822               	movf	Lcd_Set_Cursor@y,w
  2777  0C99  120A  158A  2368  120A  158A  	fcall	_Lcd_Cmd
  2778  0C9E                     l238:
  2779  0C9E  0008               	return
  2780  0C9F                     __end_of_Lcd_Set_Cursor:
  2781                           
  2782                           	psect	text8
  2783  0C9F                     __ptext8:	
  2784 ;; *************** function _Lcd_Init *****************
  2785 ;; Defined at:
  2786 ;;		line 66 in file "Lcd.c"
  2787 ;; Parameters:    Size  Location     Type
  2788 ;;		None
  2789 ;; Auto vars:     Size  Location     Type
  2790 ;;		None
  2791 ;; Return value:  Size  Location     Type
  2792 ;;                  1    wreg      void 
  2793 ;; Registers used:
  2794 ;;		wreg, status,2, status,0, pclath, cstack
  2795 ;; Tracked objects:
  2796 ;;		On entry : 0/0
  2797 ;;		On exit  : 0/0
  2798 ;;		Unchanged: 0/0
  2799 ;; Data sizes:     COMMON   BANK0   BANK1   BANK3   BANK2
  2800 ;;      Params:         0       0       0       0       0
  2801 ;;      Locals:         0       0       0       0       0
  2802 ;;      Temps:          2       0       0       0       0
  2803 ;;      Totals:         2       0       0       0       0
  2804 ;;Total ram usage:        2 bytes
  2805 ;; Hardware stack levels used:    1
  2806 ;; Hardware stack levels required when called:    3
  2807 ;; This function calls:
  2808 ;;		_Lcd_Cmd
  2809 ;;		_Lcd_Port
  2810 ;; This function is called by:
  2811 ;;		_main
  2812 ;; This function uses a non-reentrant model
  2813 ;;
  2814                           
  2815                           
  2816                           ;psect for function _Lcd_Init
  2817  0C9F                     _Lcd_Init:
  2818  0C9F                     l2022:	
  2819                           ;incstack = 0
  2820                           ; Regs used in _Lcd_Init: [wreg+status,2+status,0+pclath+cstack]
  2821                           
  2822                           
  2823                           ;Lcd.c: 68:   Lcd_Port(0x00);
  2824  0C9F  3000               	movlw	0
  2825  0CA0  120A  158A  239D  120A  158A  	fcall	_Lcd_Port
  2826  0CA5                     l2024:
  2827                           
  2828                           ;Lcd.c: 69:    _delay((unsigned long)((20)*(20000000/4000.0)));
  2829  0CA5  3082               	movlw	130
  2830  0CA6  00F7               	movwf	??_Lcd_Init+1
  2831  0CA7  30DD               	movlw	221
  2832  0CA8  00F6               	movwf	??_Lcd_Init
  2833  0CA9                     u4847:
  2834  0CA9  0BF6               	decfsz	??_Lcd_Init,f
  2835  0CAA  2CA9               	goto	u4847
  2836  0CAB  0BF7               	decfsz	??_Lcd_Init+1,f
  2837  0CAC  2CA9               	goto	u4847
  2838  0CAD  2CAE               	nop2
  2839  0CAE                     l2026:
  2840                           
  2841                           ;Lcd.c: 70:   Lcd_Cmd(0x03);
  2842  0CAE  3003               	movlw	3
  2843  0CAF  120A  158A  2368  120A  158A  	fcall	_Lcd_Cmd
  2844                           
  2845                           ;Lcd.c: 71:  _delay((unsigned long)((5)*(20000000/4000.0)));
  2846  0CB4  3021               	movlw	33
  2847  0CB5  00F7               	movwf	??_Lcd_Init+1
  2848  0CB6  3076               	movlw	118
  2849  0CB7  00F6               	movwf	??_Lcd_Init
  2850  0CB8                     u4857:
  2851  0CB8  0BF6               	decfsz	??_Lcd_Init,f
  2852  0CB9  2CB8               	goto	u4857
  2853  0CBA  0BF7               	decfsz	??_Lcd_Init+1,f
  2854  0CBB  2CB8               	goto	u4857
  2855  0CBC  0000               	nop
  2856  0CBD                     l2028:
  2857                           
  2858                           ;Lcd.c: 72:   Lcd_Cmd(0x03);
  2859  0CBD  3003               	movlw	3
  2860  0CBE  120A  158A  2368  120A  158A  	fcall	_Lcd_Cmd
  2861  0CC3                     l2030:
  2862                           
  2863                           ;Lcd.c: 73:  _delay((unsigned long)((11)*(20000000/4000.0)));
  2864  0CC3  3048               	movlw	72
  2865  0CC4  00F7               	movwf	??_Lcd_Init+1
  2866  0CC5  306C               	movlw	108
  2867  0CC6  00F6               	movwf	??_Lcd_Init
  2868  0CC7                     u4867:
  2869  0CC7  0BF6               	decfsz	??_Lcd_Init,f
  2870  0CC8  2CC7               	goto	u4867
  2871  0CC9  0BF7               	decfsz	??_Lcd_Init+1,f
  2872  0CCA  2CC7               	goto	u4867
  2873  0CCB  0000               	nop
  2874                           
  2875                           ;Lcd.c: 74:   Lcd_Cmd(0x03);
  2876  0CCC  3003               	movlw	3
  2877  0CCD  120A  158A  2368  120A  158A  	fcall	_Lcd_Cmd
  2878                           
  2879                           ;Lcd.c: 76:   Lcd_Cmd(0x02);
  2880  0CD2  3002               	movlw	2
  2881  0CD3  120A  158A  2368  120A  158A  	fcall	_Lcd_Cmd
  2882                           
  2883                           ;Lcd.c: 77:   Lcd_Cmd(0x02);
  2884  0CD8  3002               	movlw	2
  2885  0CD9  120A  158A  2368  120A  158A  	fcall	_Lcd_Cmd
  2886                           
  2887                           ;Lcd.c: 78:   Lcd_Cmd(0x08);
  2888  0CDE  3008               	movlw	8
  2889  0CDF  120A  158A  2368  120A  158A  	fcall	_Lcd_Cmd
  2890                           
  2891                           ;Lcd.c: 79:   Lcd_Cmd(0x00);
  2892  0CE4  3000               	movlw	0
  2893  0CE5  120A  158A  2368  120A  158A  	fcall	_Lcd_Cmd
  2894                           
  2895                           ;Lcd.c: 80:   Lcd_Cmd(0x0C);
  2896  0CEA  300C               	movlw	12
  2897  0CEB  120A  158A  2368  120A  158A  	fcall	_Lcd_Cmd
  2898                           
  2899                           ;Lcd.c: 81:   Lcd_Cmd(0x00);
  2900  0CF0  3000               	movlw	0
  2901  0CF1  120A  158A  2368  120A  158A  	fcall	_Lcd_Cmd
  2902                           
  2903                           ;Lcd.c: 82:   Lcd_Cmd(0x06);
  2904  0CF6  3006               	movlw	6
  2905  0CF7  120A  158A  2368  120A  158A  	fcall	_Lcd_Cmd
  2906  0CFC                     l241:
  2907  0CFC  0008               	return
  2908  0CFD                     __end_of_Lcd_Init:
  2909                           
  2910                           	psect	text9
  2911  0B68                     __ptext9:	
  2912 ;; *************** function _Lcd_Cmd *****************
  2913 ;; Defined at:
  2914 ;;		line 30 in file "Lcd.c"
  2915 ;; Parameters:    Size  Location     Type
  2916 ;;  a               1    wreg     unsigned char 
  2917 ;; Auto vars:     Size  Location     Type
  2918 ;;  a               1    5[COMMON] unsigned char 
  2919 ;; Return value:  Size  Location     Type
  2920 ;;                  1    wreg      void 
  2921 ;; Registers used:
  2922 ;;		wreg, status,2, status,0, pclath, cstack
  2923 ;; Tracked objects:
  2924 ;;		On entry : 0/0
  2925 ;;		On exit  : 0/0
  2926 ;;		Unchanged: 0/0
  2927 ;; Data sizes:     COMMON   BANK0   BANK1   BANK3   BANK2
  2928 ;;      Params:         0       0       0       0       0
  2929 ;;      Locals:         1       0       0       0       0
  2930 ;;      Temps:          2       0       0       0       0
  2931 ;;      Totals:         3       0       0       0       0
  2932 ;;Total ram usage:        3 bytes
  2933 ;; Hardware stack levels used:    1
  2934 ;; Hardware stack levels required when called:    2
  2935 ;; This function calls:
  2936 ;;		_Lcd_Port
  2937 ;; This function is called by:
  2938 ;;		_Lcd_Set_Cursor
  2939 ;;		_Lcd_Init
  2940 ;;		_Lcd_Clear
  2941 ;;		_Lcd_Shift_Right
  2942 ;;		_Lcd_Shift_Left
  2943 ;; This function uses a non-reentrant model
  2944 ;;
  2945                           
  2946                           
  2947                           ;psect for function _Lcd_Cmd
  2948  0B68                     _Lcd_Cmd:
  2949                           
  2950                           ;incstack = 0
  2951                           ; Regs used in _Lcd_Cmd: [wreg+status,2+status,0+pclath+cstack]
  2952                           ;Lcd_Cmd@a stored from wreg
  2953  0B68  00F5               	movwf	Lcd_Cmd@a
  2954  0B69                     l1904:
  2955                           
  2956                           ;Lcd.c: 30: void Lcd_Cmd(char a);Lcd.c: 31: {;Lcd.c: 32:  RD0 = 0;
  2957  0B69  1283               	bcf	3,5	;RP0=0, select bank0
  2958  0B6A  1303               	bcf	3,6	;RP1=0, select bank0
  2959  0B6B  1008               	bcf	8,0	;volatile
  2960  0B6C                     l1906:
  2961                           
  2962                           ;Lcd.c: 33:  Lcd_Port(a);
  2963  0B6C  0875               	movf	Lcd_Cmd@a,w
  2964  0B6D  120A  158A  239D  120A  158A  	fcall	_Lcd_Port
  2965  0B72                     l1908:
  2966                           
  2967                           ;Lcd.c: 34:  RD2 = 1;
  2968  0B72  1283               	bcf	3,5	;RP0=0, select bank0
  2969  0B73  1303               	bcf	3,6	;RP1=0, select bank0
  2970  0B74  1508               	bsf	8,2	;volatile
  2971  0B75                     l1910:
  2972                           
  2973                           ;Lcd.c: 35:         _delay((unsigned long)((4)*(20000000/4000.0)));
  2974  0B75  301A               	movlw	26
  2975  0B76  00F4               	movwf	??_Lcd_Cmd+1
  2976  0B77  30F8               	movlw	248
  2977  0B78  00F3               	movwf	??_Lcd_Cmd
  2978  0B79                     u4877:
  2979  0B79  0BF3               	decfsz	??_Lcd_Cmd,f
  2980  0B7A  2B79               	goto	u4877
  2981  0B7B  0BF4               	decfsz	??_Lcd_Cmd+1,f
  2982  0B7C  2B79               	goto	u4877
  2983  0B7D  0000               	nop
  2984  0B7E                     l1912:
  2985                           
  2986                           ;Lcd.c: 36:         RD2 = 0;
  2987  0B7E  1283               	bcf	3,5	;RP0=0, select bank0
  2988  0B7F  1303               	bcf	3,6	;RP1=0, select bank0
  2989  0B80  1108               	bcf	8,2	;volatile
  2990  0B81                     l229:
  2991  0B81  0008               	return
  2992  0B82                     __end_of_Lcd_Cmd:
  2993                           
  2994                           	psect	text10
  2995  0B9D                     __ptext10:	
  2996 ;; *************** function _Lcd_Port *****************
  2997 ;; Defined at:
  2998 ;;		line 7 in file "Lcd.c"
  2999 ;; Parameters:    Size  Location     Type
  3000 ;;  a               1    wreg     unsigned char 
  3001 ;; Auto vars:     Size  Location     Type
  3002 ;;  a               1    2[COMMON] unsigned char 
  3003 ;; Return value:  Size  Location     Type
  3004 ;;                  1    wreg      void 
  3005 ;; Registers used:
  3006 ;;		wreg
  3007 ;; Tracked objects:
  3008 ;;		On entry : 0/0
  3009 ;;		On exit  : 0/0
  3010 ;;		Unchanged: 0/0
  3011 ;; Data sizes:     COMMON   BANK0   BANK1   BANK3   BANK2
  3012 ;;      Params:         0       0       0       0       0
  3013 ;;      Locals:         1       0       0       0       0
  3014 ;;      Temps:          0       0       0       0       0
  3015 ;;      Totals:         1       0       0       0       0
  3016 ;;Total ram usage:        1 bytes
  3017 ;; Hardware stack levels used:    1
  3018 ;; Hardware stack levels required when called:    1
  3019 ;; This function calls:
  3020 ;;		Nothing
  3021 ;; This function is called by:
  3022 ;;		_Lcd_Cmd
  3023 ;;		_Lcd_Init
  3024 ;;		_Lcd_Write_Char
  3025 ;; This function uses a non-reentrant model
  3026 ;;
  3027                           
  3028                           
  3029                           ;psect for function _Lcd_Port
  3030  0B9D                     _Lcd_Port:
  3031                           
  3032                           ;incstack = 0
  3033                           ; Regs used in _Lcd_Port: [wreg]
  3034                           ;Lcd_Port@a stored from wreg
  3035  0B9D  00F2               	movwf	Lcd_Port@a
  3036  0B9E                     l1894:
  3037                           
  3038                           ;Lcd.c: 7: void Lcd_Port(char a);Lcd.c: 8: {;Lcd.c: 9:     RD1 = 0;
  3039  0B9E  1283               	bcf	3,5	;RP0=0, select bank0
  3040  0B9F  1303               	bcf	3,6	;RP1=0, select bank0
  3041  0BA0  1088               	bcf	8,1	;volatile
  3042                           
  3043                           ;Lcd.c: 10:  if(a & 1)
  3044  0BA1  1C72               	btfss	Lcd_Port@a,0
  3045  0BA2  2BA4               	goto	u1631
  3046  0BA3  2BA5               	goto	u1630
  3047  0BA4                     u1631:
  3048  0BA4  2BA7               	goto	l218
  3049  0BA5                     u1630:
  3050  0BA5                     l1896:
  3051                           
  3052                           ;Lcd.c: 11:   RD4 = 1;
  3053  0BA5  1608               	bsf	8,4	;volatile
  3054  0BA6  2BA8               	goto	l219
  3055  0BA7                     l218:	
  3056                           ;Lcd.c: 12:  else
  3057                           
  3058                           
  3059                           ;Lcd.c: 13:   RD4 = 0;
  3060  0BA7  1208               	bcf	8,4	;volatile
  3061  0BA8                     l219:
  3062                           
  3063                           ;Lcd.c: 15:  if(a & 2)
  3064  0BA8  1CF2               	btfss	Lcd_Port@a,1
  3065  0BA9  2BAB               	goto	u1641
  3066  0BAA  2BAC               	goto	u1640
  3067  0BAB                     u1641:
  3068  0BAB  2BAE               	goto	l220
  3069  0BAC                     u1640:
  3070  0BAC                     l1898:
  3071                           
  3072                           ;Lcd.c: 16:   RD5 = 1;
  3073  0BAC  1688               	bsf	8,5	;volatile
  3074  0BAD  2BAF               	goto	l221
  3075  0BAE                     l220:	
  3076                           ;Lcd.c: 17:  else
  3077                           
  3078                           
  3079                           ;Lcd.c: 18:   RD5 = 0;
  3080  0BAE  1288               	bcf	8,5	;volatile
  3081  0BAF                     l221:
  3082                           
  3083                           ;Lcd.c: 20:  if(a & 4)
  3084  0BAF  1D72               	btfss	Lcd_Port@a,2
  3085  0BB0  2BB2               	goto	u1651
  3086  0BB1  2BB3               	goto	u1650
  3087  0BB2                     u1651:
  3088  0BB2  2BB5               	goto	l222
  3089  0BB3                     u1650:
  3090  0BB3                     l1900:
  3091                           
  3092                           ;Lcd.c: 21:   RD6 = 1;
  3093  0BB3  1708               	bsf	8,6	;volatile
  3094  0BB4  2BB6               	goto	l223
  3095  0BB5                     l222:	
  3096                           ;Lcd.c: 22:  else
  3097                           
  3098                           
  3099                           ;Lcd.c: 23:   RD6 = 0;
  3100  0BB5  1308               	bcf	8,6	;volatile
  3101  0BB6                     l223:
  3102                           
  3103                           ;Lcd.c: 25:  if(a & 8)
  3104  0BB6  1DF2               	btfss	Lcd_Port@a,3
  3105  0BB7  2BB9               	goto	u1661
  3106  0BB8  2BBA               	goto	u1660
  3107  0BB9                     u1661:
  3108  0BB9  2BBC               	goto	l224
  3109  0BBA                     u1660:
  3110  0BBA                     l1902:
  3111                           
  3112                           ;Lcd.c: 26:   RD7 = 1;
  3113  0BBA  1788               	bsf	8,7	;volatile
  3114  0BBB  2BBD               	goto	l226
  3115  0BBC                     l224:	
  3116                           ;Lcd.c: 27:  else
  3117                           
  3118                           
  3119                           ;Lcd.c: 28:   RD7 = 0;
  3120  0BBC  1388               	bcf	8,7	;volatile
  3121  0BBD                     l226:
  3122  0BBD  0008               	return
  3123  0BBE                     __end_of_Lcd_Port:
  3124                           
  3125                           	psect	text11
  3126  0BE3                     __ptext11:	
  3127 ;; *************** function _ADC_Read *****************
  3128 ;; Defined at:
  3129 ;;		line 21 in file "Adc.c"
  3130 ;; Parameters:    Size  Location     Type
  3131 ;;  channel         1    wreg     unsigned char 
  3132 ;; Auto vars:     Size  Location     Type
  3133 ;;  channel         1    6[COMMON] unsigned char 
  3134 ;; Return value:  Size  Location     Type
  3135 ;;                  2    2[COMMON] unsigned int 
  3136 ;; Registers used:
  3137 ;;		wreg, status,2, status,0
  3138 ;; Tracked objects:
  3139 ;;		On entry : 0/0
  3140 ;;		On exit  : 0/0
  3141 ;;		Unchanged: 0/0
  3142 ;; Data sizes:     COMMON   BANK0   BANK1   BANK3   BANK2
  3143 ;;      Params:         2       0       0       0       0
  3144 ;;      Locals:         1       0       0       0       0
  3145 ;;      Temps:          2       0       0       0       0
  3146 ;;      Totals:         5       0       0       0       0
  3147 ;;Total ram usage:        5 bytes
  3148 ;; Hardware stack levels used:    1
  3149 ;; Hardware stack levels required when called:    1
  3150 ;; This function calls:
  3151 ;;		Nothing
  3152 ;; This function is called by:
  3153 ;;		_main
  3154 ;;		_Joystick
  3155 ;; This function uses a non-reentrant model
  3156 ;;
  3157                           
  3158                           
  3159                           ;psect for function _ADC_Read
  3160  0BE3                     _ADC_Read:
  3161                           
  3162                           ;incstack = 0
  3163                           ; Regs used in _ADC_Read: [wreg+status,2+status,0]
  3164                           ;ADC_Read@channel stored from wreg
  3165  0BE3  00F6               	movwf	ADC_Read@channel
  3166  0BE4                     l2060:
  3167                           
  3168                           ;Adc.c: 21: unsigned int ADC_Read(unsigned char channel);Adc.c: 22: {;Adc.c: 24:   ADCON
      +                          0 &= 0x11000101;
  3169  0BE4  3001               	movlw	1
  3170  0BE5  00F4               	movwf	??_ADC_Read
  3171  0BE6  0874               	movf	??_ADC_Read,w
  3172  0BE7  1283               	bcf	3,5	;RP0=0, select bank0
  3173  0BE8  1303               	bcf	3,6	;RP1=0, select bank0
  3174  0BE9  059F               	andwf	31,f	;volatile
  3175                           
  3176                           ;Adc.c: 26:   ADCON0 |= channel<<3;
  3177  0BEA  0876               	movf	ADC_Read@channel,w	;volatile
  3178  0BEB  00F4               	movwf	??_ADC_Read
  3179  0BEC  3002               	movlw	2
  3180  0BED                     u1925:
  3181  0BED  1003               	clrc
  3182  0BEE  0DF4               	rlf	??_ADC_Read,f
  3183  0BEF  3EFF               	addlw	-1
  3184  0BF0  1D03               	skipz
  3185  0BF1  2BED               	goto	u1925
  3186  0BF2  1003               	clrc
  3187  0BF3  0D74               	rlf	??_ADC_Read,w
  3188  0BF4  00F5               	movwf	??_ADC_Read+1
  3189  0BF5  0875               	movf	??_ADC_Read+1,w
  3190  0BF6  049F               	iorwf	31,f	;volatile
  3191  0BF7                     l2062:
  3192                           
  3193                           ;Adc.c: 28:   _delay((unsigned long)((2)*(20000000/4000.0)));
  3194  0BF7  300D               	movlw	13
  3195  0BF8  00F5               	movwf	??_ADC_Read+1
  3196  0BF9  30FB               	movlw	251
  3197  0BFA  00F4               	movwf	??_ADC_Read
  3198  0BFB                     u4887:
  3199  0BFB  0BF4               	decfsz	??_ADC_Read,f
  3200  0BFC  2BFB               	goto	u4887
  3201  0BFD  0BF5               	decfsz	??_ADC_Read+1,f
  3202  0BFE  2BFB               	goto	u4887
  3203  0BFF  2C00               	nop2
  3204  0C00                     l2064:
  3205                           
  3206                           ;Adc.c: 30:   GO_nDONE = 1;
  3207  0C00  1283               	bcf	3,5	;RP0=0, select bank0
  3208  0C01  1303               	bcf	3,6	;RP1=0, select bank0
  3209  0C02  151F               	bsf	31,2	;volatile
  3210  0C03                     l343:	
  3211                           ;Adc.c: 32:   while(GO_nDONE);
  3212                           
  3213  0C03  191F               	btfsc	31,2	;volatile
  3214  0C04  2C06               	goto	u1931
  3215  0C05  2C07               	goto	u1930
  3216  0C06                     u1931:
  3217  0C06  2C03               	goto	l343
  3218  0C07                     u1930:
  3219  0C07                     l2066:
  3220                           
  3221                           ;Adc.c: 34:   return ((ADRESH<<8)+ADRESL);
  3222  0C07  081E               	movf	30,w	;volatile
  3223  0C08  00F3               	movwf	?_ADC_Read+1
  3224  0C09  1683               	bsf	3,5	;RP0=1, select bank1
  3225  0C0A  1303               	bcf	3,6	;RP1=0, select bank1
  3226  0C0B  081E               	movf	30,w	;volatile
  3227  0C0C  00F2               	movwf	?_ADC_Read
  3228  0C0D                     l346:
  3229  0C0D  0008               	return
  3230  0C0E                     __end_of_ADC_Read:
  3231                           
  3232                           	psect	text12
  3233  0B4D                     __ptext12:	
  3234 ;; *************** function _ADC_Initialize *****************
  3235 ;; Defined at:
  3236 ;;		line 11 in file "Adc.c"
  3237 ;; Parameters:    Size  Location     Type
  3238 ;;		None
  3239 ;; Auto vars:     Size  Location     Type
  3240 ;;		None
  3241 ;; Return value:  Size  Location     Type
  3242 ;;                  1    wreg      void 
  3243 ;; Registers used:
  3244 ;;		wreg
  3245 ;; Tracked objects:
  3246 ;;		On entry : 0/0
  3247 ;;		On exit  : 0/0
  3248 ;;		Unchanged: 0/0
  3249 ;; Data sizes:     COMMON   BANK0   BANK1   BANK3   BANK2
  3250 ;;      Params:         0       0       0       0       0
  3251 ;;      Locals:         0       0       0       0       0
  3252 ;;      Temps:          0       0       0       0       0
  3253 ;;      Totals:         0       0       0       0       0
  3254 ;;Total ram usage:        0 bytes
  3255 ;; Hardware stack levels used:    1
  3256 ;; Hardware stack levels required when called:    1
  3257 ;; This function calls:
  3258 ;;		Nothing
  3259 ;; This function is called by:
  3260 ;;		_main
  3261 ;; This function uses a non-reentrant model
  3262 ;;
  3263                           
  3264                           
  3265                           ;psect for function _ADC_Initialize
  3266  0B4D                     _ADC_Initialize:
  3267  0B4D                     l2020:	
  3268                           ;incstack = 0
  3269                           ; Regs used in _ADC_Initialize: [wreg]
  3270                           
  3271                           
  3272                           ;Adc.c: 14:   ADCON0 = 0b01000001;
  3273  0B4D  3041               	movlw	65
  3274  0B4E  1283               	bcf	3,5	;RP0=0, select bank0
  3275  0B4F  1303               	bcf	3,6	;RP1=0, select bank0
  3276  0B50  009F               	movwf	31	;volatile
  3277                           
  3278                           ;Adc.c: 16:   ADCON1 = 0b11000000;
  3279  0B51  30C0               	movlw	192
  3280  0B52  1683               	bsf	3,5	;RP0=1, select bank1
  3281  0B53  1303               	bcf	3,6	;RP1=0, select bank1
  3282  0B54  009F               	movwf	31	;volatile
  3283  0B55                     l340:
  3284  0B55  0008               	return
  3285  0B56                     __end_of_ADC_Initialize:
  3286                           
  3287                           	psect	text13
  3288  0B82                     __ptext13:	
  3289 ;; *************** function _ISR *****************
  3290 ;; Defined at:
  3291 ;;		line 322 in file "Mainprj2.c"
  3292 ;; Parameters:    Size  Location     Type
  3293 ;;		None
  3294 ;; Auto vars:     Size  Location     Type
  3295 ;;		None
  3296 ;; Return value:  Size  Location     Type
  3297 ;;                  1    wreg      void 
  3298 ;; Registers used:
  3299 ;;		wreg, status,2, status,0
  3300 ;; Tracked objects:
  3301 ;;		On entry : 0/0
  3302 ;;		On exit  : 0/0
  3303 ;;		Unchanged: 0/0
  3304 ;; Data sizes:     COMMON   BANK0   BANK1   BANK3   BANK2
  3305 ;;      Params:         0       0       0       0       0
  3306 ;;      Locals:         0       0       0       0       0
  3307 ;;      Temps:          2       0       0       0       0
  3308 ;;      Totals:         2       0       0       0       0
  3309 ;;Total ram usage:        2 bytes
  3310 ;; Hardware stack levels used:    1
  3311 ;; This function calls:
  3312 ;;		Nothing
  3313 ;; This function is called by:
  3314 ;;		Interrupt level 1
  3315 ;; This function uses a non-reentrant model
  3316 ;;
  3317                           
  3318                           
  3319                           ;psect for function _ISR
  3320  0B82                     _ISR:
  3321  0B82                     i1l1746:
  3322                           
  3323                           ;Mainprj2.c: 323:     if(INTCONbits.TMR0IF)
  3324  0B82  1D0B               	btfss	11,2	;volatile
  3325  0B83  2B85               	goto	u141_21
  3326  0B84  2B86               	goto	u141_20
  3327  0B85                     u141_21:
  3328  0B85  2B96               	goto	i1l197
  3329  0B86                     u141_20:
  3330  0B86                     i1l1748:
  3331                           
  3332                           ;Mainprj2.c: 324:     {;Mainprj2.c: 325:       INTCONbits.TMR0IF=0;
  3333  0B86  110B               	bcf	11,2	;volatile
  3334  0B87                     i1l1750:
  3335                           
  3336                           ;Mainprj2.c: 326:       count++;
  3337  0B87  3001               	movlw	1
  3338  0B88  07FA               	addwf	_count,f
  3339  0B89  1803               	skipnc
  3340  0B8A  0AFB               	incf	_count+1,f
  3341  0B8B  3000               	movlw	0
  3342  0B8C  07FB               	addwf	_count+1,f
  3343  0B8D                     i1l1752:
  3344                           
  3345                           ;Mainprj2.c: 327:       if (count==76) {
  3346  0B8D  304C               	movlw	76
  3347  0B8E  067A               	xorwf	_count,w
  3348  0B8F  047B               	iorwf	_count+1,w
  3349  0B90  1D03               	btfss	3,2
  3350  0B91  2B93               	goto	u142_21
  3351  0B92  2B94               	goto	u142_20
  3352  0B93                     u142_21:
  3353  0B93  2B96               	goto	i1l197
  3354  0B94                     u142_20:
  3355  0B94                     i1l1754:
  3356                           
  3357                           ;Mainprj2.c: 329:           count=0;
  3358  0B94  01FA               	clrf	_count
  3359  0B95  01FB               	clrf	_count+1
  3360  0B96                     i1l197:
  3361  0B96  0871               	movf	??_ISR+1,w
  3362  0B97  008A               	movwf	10
  3363  0B98  0E70               	swapf	??_ISR,w
  3364  0B99  0083               	movwf	3
  3365  0B9A  0EFE               	swapf	btemp,f
  3366  0B9B  0E7E               	swapf	btemp,w
  3367  0B9C  0009               	retfie
  3368  0B9D                     __end_of_ISR:
  3369  007E                     btemp	set	126	;btemp
  3370  007E                     wtemp0	set	126
  3371                           
  3372                           	psect	intentry
  3373  0004                     __pintentry:	
  3374                           ;incstack = 0
  3375                           ; Regs used in _ISR: [wreg+status,2+status,0]
  3376                           
  3377  0004                     interrupt_function:
  3378  007E                     saved_w	set	btemp
  3379  0004  00FE               	movwf	btemp
  3380  0005  0E03               	swapf	3,w
  3381  0006  00F0               	movwf	??_ISR
  3382  0007  080A               	movf	10,w
  3383  0008  00F1               	movwf	??_ISR+1
  3384  0009  120A  158A  2B82   	ljmp	_ISR
  3385                           
  3386                           	psect	config
  3387                           
  3388                           ;Config register CONFIG @ 0x2007
  3389                           ;	Oscillator Selection bits
  3390                           ;	FOSC = HS, HS oscillator
  3391                           ;	Watchdog Timer Enable bit
  3392                           ;	WDTE = OFF, WDT disabled
  3393                           ;	Power-up Timer Enable bit
  3394                           ;	PWRTE = OFF, PWRT disabled
  3395                           ;	Brown-out Reset Enable bit
  3396                           ;	BOREN = ON, BOR enabled
  3397                           ;	Low-Voltage (Single-Supply) In-Circuit Serial Programming Enable bit
  3398                           ;	LVP = OFF, RB3 is digital I/O, HV on MCLR must be used for programming
  3399                           ;	Data EEPROM Memory Code Protection bit
  3400                           ;	CPD = OFF, Data EEPROM code protection off
  3401                           ;	Flash Program Memory Write Enable bits
  3402                           ;	WRT = OFF, Write protection off; all program memory may be written to by EECON control
  3403                           ;	In-Circuit Debugger Mode bit
  3404                           ;	DEBUG = 0x1, unprogrammed default
  3405                           ;	Flash Program Memory Code Protection bit
  3406                           ;	CP = OFF, Code protection off
  3407  2007                     	org	8199
  3408  2007  3F7A               	dw	16250
  3409                           
  3410                           	psect	maintext_split_1
  3411  0026                     u3560:
  3412  0026                     l2978:
  3413  0026  1283               	bcf	3,5	;RP0=0, select bank0
  3414  0027  1303               	bcf	3,6	;RP1=0, select bank0
  3415  0028  0857               	movf	main@joy_X+1,w
  3416  0029  3A80               	xorlw	128
  3417  002A  00FF               	movwf	btemp+1
  3418  002B  3080               	movlw	128
  3419  002C  027F               	subwf	btemp+1,w
  3420  002D  1D03               	skipz
  3421  002E  2831               	goto	u3575
  3422  002F  30C8               	movlw	200
  3423  0030  0256               	subwf	main@joy_X,w
  3424  0031                     u3575:
  3425  0031  1C03               	skipc
  3426  0032  2834               	goto	u3571
  3427  0033  2835               	goto	u3570
  3428  0034                     u3571:
  3429  0034  2876               	goto	l2994
  3430  0035                     u3570:
  3431  0035                     l2980:
  3432  0035  1283               	bcf	3,5	;RP0=0, select bank0
  3433  0036  1303               	bcf	3,6	;RP1=0, select bank0
  3434  0037  0859               	movf	main@joy_Y+1,w
  3435  0038  3A80               	xorlw	128
  3436  0039  00FF               	movwf	btemp+1
  3437  003A  3083               	movlw	131
  3438  003B  027F               	subwf	btemp+1,w
  3439  003C  1D03               	skipz
  3440  003D  2840               	goto	u3585
  3441  003E  3021               	movlw	33
  3442  003F  0258               	subwf	main@joy_Y,w
  3443  0040                     u3585:
  3444  0040  1C03               	skipc
  3445  0041  2843               	goto	u3581
  3446  0042  2844               	goto	u3580
  3447  0043                     u3581:
  3448  0043  2876               	goto	l2994
  3449  0044                     u3580:
  3450  0044                     l2982:
  3451                           
  3452                           ;Mainprj2.c: 87:       { xuong++;len=0;trai=0;phai=0;
  3453  0044  3001               	movlw	1
  3454  0045  1283               	bcf	3,5	;RP0=0, select bank0
  3455  0046  1303               	bcf	3,6	;RP1=0, select bank0
  3456  0047  07CC               	addwf	main@xuong,f
  3457  0048  1803               	skipnc
  3458  0049  0ACD               	incf	main@xuong+1,f
  3459  004A  3000               	movlw	0
  3460  004B  07CD               	addwf	main@xuong+1,f
  3461  004C                     l2984:
  3462  004C  01CA               	clrf	main@len
  3463  004D  01CB               	clrf	main@len+1
  3464  004E                     l2986:
  3465  004E  01C4               	clrf	main@trai
  3466  004F  01C5               	clrf	main@trai+1
  3467  0050                     l2988:
  3468  0050  01DC               	clrf	main@phai
  3469  0051  01DD               	clrf	main@phai+1
  3470  0052                     l2990:
  3471                           
  3472                           ;Mainprj2.c: 88:     if ( xuong>0)
  3473  0052  084D               	movf	main@xuong+1,w
  3474  0053  3A80               	xorlw	128
  3475  0054  00FF               	movwf	btemp+1
  3476  0055  3080               	movlw	128
  3477  0056  027F               	subwf	btemp+1,w
  3478  0057  1D03               	skipz
  3479  0058  285B               	goto	u3595
  3480  0059  3001               	movlw	1
  3481  005A  024C               	subwf	main@xuong,w
  3482  005B                     u3595:
  3483  005B  1C03               	skipc
  3484  005C  285E               	goto	u3591
  3485  005D  285F               	goto	u3590
  3486  005E                     u3591:
  3487  005E  2876               	goto	l2994
  3488  005F                     u3590:
  3489  005F                     l2992:
  3490                           
  3491                           ;Mainprj2.c: 89:     {;Mainprj2.c: 90:         tinhnang++;
  3492  005F  3001               	movlw	1
  3493  0060  1283               	bcf	3,5	;RP0=0, select bank0
  3494  0061  1303               	bcf	3,6	;RP1=0, select bank0
  3495  0062  07DE               	addwf	main@tinhnang,f
  3496  0063  1803               	skipnc
  3497  0064  0ADF               	incf	main@tinhnang+1,f
  3498  0065  3000               	movlw	0
  3499  0066  07DF               	addwf	main@tinhnang+1,f
  3500                           
  3501                           ;Mainprj2.c: 91:                _delay((unsigned long)((1000)*(20000000/4000.0)));
  3502  0067  301A               	movlw	26
  3503  0068  1283               	bcf	3,5	;RP0=0, select bank0
  3504  0069  1303               	bcf	3,6	;RP1=0, select bank0
  3505  006A  00BB               	movwf	??_main+2
  3506  006B  305E               	movlw	94
  3507  006C  00BA               	movwf	??_main+1
  3508  006D  306D               	movlw	109
  3509  006E  00B9               	movwf	??_main
  3510  006F                     u4587:
  3511  006F  0BB9               	decfsz	??_main,f
  3512  0070  286F               	goto	u4587
  3513  0071  0BBA               	decfsz	??_main+1,f
  3514  0072  286F               	goto	u4587
  3515  0073  0BBB               	decfsz	??_main+2,f
  3516  0074  286F               	goto	u4587
  3517  0075  2876               	nop2
  3518  0076                     l2994:
  3519                           
  3520                           ;Mainprj2.c: 95:       if ((joy_X < 200) && (joy_Y <= 800) && (joy_Y >= 200) )
  3521  0076  1283               	bcf	3,5	;RP0=0, select bank0
  3522  0077  1303               	bcf	3,6	;RP1=0, select bank0
  3523  0078  0857               	movf	main@joy_X+1,w
  3524  0079  3A80               	xorlw	128
  3525  007A  00FF               	movwf	btemp+1
  3526  007B  3080               	movlw	128
  3527  007C  027F               	subwf	btemp+1,w
  3528  007D  1D03               	skipz
  3529  007E  2881               	goto	u3605
  3530  007F  30C8               	movlw	200
  3531  0080  0256               	subwf	main@joy_X,w
  3532  0081                     u3605:
  3533  0081  1803               	skipnc
  3534  0082  2884               	goto	u3601
  3535  0083  2885               	goto	u3600
  3536  0084                     u3601:
  3537  0084  28B1               	goto	l3008
  3538  0085                     u3600:
  3539  0085                     l2996:
  3540  0085  1283               	bcf	3,5	;RP0=0, select bank0
  3541  0086  1303               	bcf	3,6	;RP1=0, select bank0
  3542  0087  0859               	movf	main@joy_Y+1,w
  3543  0088  3A80               	xorlw	128
  3544  0089  00FF               	movwf	btemp+1
  3545  008A  3083               	movlw	131
  3546  008B  027F               	subwf	btemp+1,w
  3547  008C  1D03               	skipz
  3548  008D  2890               	goto	u3615
  3549  008E  3021               	movlw	33
  3550  008F  0258               	subwf	main@joy_Y,w
  3551  0090                     u3615:
  3552  0090  1803               	skipnc
  3553  0091  2893               	goto	u3611
  3554  0092  2894               	goto	u3610
  3555  0093                     u3611:
  3556  0093  28B1               	goto	l3008
  3557  0094                     u3610:
  3558  0094                     l2998:
  3559  0094  1283               	bcf	3,5	;RP0=0, select bank0
  3560  0095  1303               	bcf	3,6	;RP1=0, select bank0
  3561  0096  0859               	movf	main@joy_Y+1,w
  3562  0097  3A80               	xorlw	128
  3563  0098  00FF               	movwf	btemp+1
  3564  0099  3080               	movlw	128
  3565  009A  027F               	subwf	btemp+1,w
  3566  009B  1D03               	skipz
  3567  009C  289F               	goto	u3625
  3568  009D  30C8               	movlw	200
  3569  009E  0258               	subwf	main@joy_Y,w
  3570  009F                     u3625:
  3571  009F  1C03               	skipc
  3572  00A0  28A2               	goto	u3621
  3573  00A1  28A3               	goto	u3620
  3574  00A2                     u3621:
  3575  00A2  28B1               	goto	l3008
  3576  00A3                     u3620:
  3577  00A3                     l3000:
  3578                           
  3579                           ;Mainprj2.c: 97:     { phai++;xuong=0;len=0;trai=0;}
  3580  00A3  3001               	movlw	1
  3581  00A4  1283               	bcf	3,5	;RP0=0, select bank0
  3582  00A5  1303               	bcf	3,6	;RP1=0, select bank0
  3583  00A6  07DC               	addwf	main@phai,f
  3584  00A7  1803               	skipnc
  3585  00A8  0ADD               	incf	main@phai+1,f
  3586  00A9  3000               	movlw	0
  3587  00AA  07DD               	addwf	main@phai+1,f
  3588  00AB                     l3002:
  3589  00AB  01CC               	clrf	main@xuong
  3590  00AC  01CD               	clrf	main@xuong+1
  3591  00AD                     l3004:
  3592  00AD  01CA               	clrf	main@len
  3593  00AE  01CB               	clrf	main@len+1
  3594  00AF                     l3006:
  3595  00AF  01C4               	clrf	main@trai
  3596  00B0  01C5               	clrf	main@trai+1
  3597  00B1                     l3008:
  3598                           
  3599                           ;Mainprj2.c: 99:      if((joy_X > 800) && (joy_Y <= 800) && (joy_Y >= 200) )
  3600  00B1  1283               	bcf	3,5	;RP0=0, select bank0
  3601  00B2  1303               	bcf	3,6	;RP1=0, select bank0
  3602  00B3  0857               	movf	main@joy_X+1,w
  3603  00B4  3A80               	xorlw	128
  3604  00B5  00FF               	movwf	btemp+1
  3605  00B6  3083               	movlw	131
  3606  00B7  027F               	subwf	btemp+1,w
  3607  00B8  1D03               	skipz
  3608  00B9  28BC               	goto	u3635
  3609  00BA  3021               	movlw	33
  3610  00BB  0256               	subwf	main@joy_X,w
  3611  00BC                     u3635:
  3612  00BC  1C03               	skipc
  3613  00BD  28BF               	goto	u3631
  3614  00BE  28C0               	goto	u3630
  3615  00BF                     u3631:
  3616  00BF  2921               	goto	l3038
  3617  00C0                     u3630:
  3618  00C0                     l3010:
  3619  00C0  1283               	bcf	3,5	;RP0=0, select bank0
  3620  00C1  1303               	bcf	3,6	;RP1=0, select bank0
  3621  00C2  0859               	movf	main@joy_Y+1,w
  3622  00C3  3A80               	xorlw	128
  3623  00C4  00FF               	movwf	btemp+1
  3624  00C5  3083               	movlw	131
  3625  00C6  027F               	subwf	btemp+1,w
  3626  00C7  1D03               	skipz
  3627  00C8  28CB               	goto	u3645
  3628  00C9  3021               	movlw	33
  3629  00CA  0258               	subwf	main@joy_Y,w
  3630  00CB                     u3645:
  3631  00CB  1803               	skipnc
  3632  00CC  28CE               	goto	u3641
  3633  00CD  28CF               	goto	u3640
  3634  00CE                     u3641:
  3635  00CE  2921               	goto	l3038
  3636  00CF                     u3640:
  3637  00CF                     l3012:
  3638  00CF  1283               	bcf	3,5	;RP0=0, select bank0
  3639  00D0  1303               	bcf	3,6	;RP1=0, select bank0
  3640  00D1  0859               	movf	main@joy_Y+1,w
  3641  00D2  3A80               	xorlw	128
  3642  00D3  00FF               	movwf	btemp+1
  3643  00D4  3080               	movlw	128
  3644  00D5  027F               	subwf	btemp+1,w
  3645  00D6  1D03               	skipz
  3646  00D7  28DA               	goto	u3655
  3647  00D8  30C8               	movlw	200
  3648  00D9  0258               	subwf	main@joy_Y,w
  3649  00DA                     u3655:
  3650  00DA  1C03               	skipc
  3651  00DB  28DD               	goto	u3651
  3652  00DC  28DE               	goto	u3650
  3653  00DD                     u3651:
  3654  00DD  2921               	goto	l3038
  3655  00DE                     u3650:
  3656  00DE                     l3014:
  3657                           
  3658                           ;Mainprj2.c: 101:      {_delay((unsigned long)((1000)*(20000000/4000.0)));
  3659  00DE  301A               	movlw	26
  3660  00DF  1283               	bcf	3,5	;RP0=0, select bank0
  3661  00E0  1303               	bcf	3,6	;RP1=0, select bank0
  3662  00E1  00BB               	movwf	??_main+2
  3663  00E2  305E               	movlw	94
  3664  00E3  00BA               	movwf	??_main+1
  3665  00E4  306D               	movlw	109
  3666  00E5  00B9               	movwf	??_main
  3667  00E6                     u4597:
  3668  00E6  0BB9               	decfsz	??_main,f
  3669  00E7  28E6               	goto	u4597
  3670  00E8  0BBA               	decfsz	??_main+1,f
  3671  00E9  28E6               	goto	u4597
  3672  00EA  0BBB               	decfsz	??_main+2,f
  3673  00EB  28E6               	goto	u4597
  3674  00EC  28ED               	nop2
  3675                           
  3676                           ;Mainprj2.c: 102:      tinhnang=1;
  3677  00ED  3001               	movlw	1
  3678  00EE  1283               	bcf	3,5	;RP0=0, select bank0
  3679  00EF  1303               	bcf	3,6	;RP1=0, select bank0
  3680  00F0  00DE               	movwf	main@tinhnang
  3681  00F1  3000               	movlw	0
  3682  00F2  00DF               	movwf	main@tinhnang+1
  3683  00F3                     l3016:
  3684                           
  3685                           ;Mainprj2.c: 103:      trangthai=0;
  3686  00F3  01DA               	clrf	main@trangthai
  3687  00F4  01DB               	clrf	main@trangthai+1
  3688  00F5                     l3018:
  3689                           
  3690                           ;Mainprj2.c: 104:      xuong=0;
  3691  00F5  01CC               	clrf	main@xuong
  3692  00F6  01CD               	clrf	main@xuong+1
  3693  00F7                     l3020:
  3694                           
  3695                           ;Mainprj2.c: 105:      len=0;
  3696  00F7  01CA               	clrf	main@len
  3697  00F8  01CB               	clrf	main@len+1
  3698  00F9                     l3022:
  3699                           
  3700                           ;Mainprj2.c: 106:      trai=0;
  3701  00F9  01C4               	clrf	main@trai
  3702  00FA  01C5               	clrf	main@trai+1
  3703                           
  3704                           ;Mainprj2.c: 107:      dongcua=1;
  3705  00FB  3001               	movlw	1
  3706  00FC  00C6               	movwf	main@dongcua
  3707  00FD  3000               	movlw	0
  3708  00FE  00C7               	movwf	main@dongcua+1
  3709  00FF                     l3024:
  3710                           
  3711                           ;Mainprj2.c: 108:      mocua=0;
  3712  00FF  01C8               	clrf	main@mocua
  3713  0100  01C9               	clrf	main@mocua+1
  3714  0101                     l3026:
  3715                           
  3716                           ;Mainprj2.c: 109:      trangthaim1=1;
  3717  0101  3001               	movlw	1
  3718  0102  00D0               	movwf	main@trangthaim1
  3719  0103  3000               	movlw	0
  3720  0104  00D1               	movwf	main@trangthaim1+1
  3721  0105                     l3028:
  3722                           
  3723                           ;Mainprj2.c: 110:      trangthaim2=1;
  3724  0105  3001               	movlw	1
  3725  0106  00D2               	movwf	main@trangthaim2
  3726  0107  3000               	movlw	0
  3727  0108  00D3               	movwf	main@trangthaim2+1
  3728  0109                     l3030:
  3729                           
  3730                           ;Mainprj2.c: 111:      trangthaim3=0;
  3731  0109  01D4               	clrf	main@trangthaim3
  3732  010A  01D5               	clrf	main@trangthaim3+1
  3733  010B                     l3032:
  3734                           
  3735                           ;Mainprj2.c: 112:      trangthaim4=0;
  3736  010B  01CE               	clrf	main@trangthaim4
  3737  010C  01CF               	clrf	main@trangthaim4+1
  3738  010D                     l3034:
  3739                           
  3740                           ;Mainprj2.c: 113:      UART_Write('r');
  3741  010D  3072               	movlw	114
  3742  010E  120A  118A  27F1  120A  118A  	fcall	_UART_Write
  3743  0113                     l3036:
  3744                           
  3745                           ;Mainprj2.c: 114:          _delay((unsigned long)((100)*(20000000/4000.0)));
  3746  0113  3003               	movlw	3
  3747  0114  1283               	bcf	3,5	;RP0=0, select bank0
  3748  0115  1303               	bcf	3,6	;RP1=0, select bank0
  3749  0116  00BB               	movwf	??_main+2
  3750  0117  308A               	movlw	138
  3751  0118  00BA               	movwf	??_main+1
  3752  0119  3055               	movlw	85
  3753  011A  00B9               	movwf	??_main
  3754  011B                     u4607:
  3755  011B  0BB9               	decfsz	??_main,f
  3756  011C  291B               	goto	u4607
  3757  011D  0BBA               	decfsz	??_main+1,f
  3758  011E  291B               	goto	u4607
  3759  011F  0BBB               	decfsz	??_main+2,f
  3760  0120  291B               	goto	u4607
  3761  0121                     l3038:
  3762                           
  3763                           ;Mainprj2.c: 116:     };Mainprj2.c: 117:     if (tinhnang==0) tinhnang=8;
  3764  0121  1283               	bcf	3,5	;RP0=0, select bank0
  3765  0122  1303               	bcf	3,6	;RP1=0, select bank0
  3766  0123  085E               	movf	main@tinhnang,w
  3767  0124  045F               	iorwf	main@tinhnang+1,w
  3768  0125  1D03               	btfss	3,2
  3769  0126  2928               	goto	u3661
  3770  0127  2929               	goto	u3660
  3771  0128                     u3661:
  3772  0128  292D               	goto	l3042
  3773  0129                     u3660:
  3774  0129                     l3040:
  3775  0129  3008               	movlw	8
  3776  012A  00DE               	movwf	main@tinhnang
  3777  012B  3000               	movlw	0
  3778  012C  00DF               	movwf	main@tinhnang+1
  3779  012D                     l3042:
  3780                           
  3781                           ;Mainprj2.c: 118:     if (tinhnang==9) tinhnang=1;
  3782  012D  3009               	movlw	9
  3783  012E  065E               	xorwf	main@tinhnang,w
  3784  012F  045F               	iorwf	main@tinhnang+1,w
  3785  0130  1D03               	btfss	3,2
  3786  0131  2933               	goto	u3671
  3787  0132  2934               	goto	u3670
  3788  0133                     u3671:
  3789  0133  2938               	goto	l3046
  3790  0134                     u3670:
  3791  0134                     l3044:
  3792  0134  3001               	movlw	1
  3793  0135  00DE               	movwf	main@tinhnang
  3794  0136  3000               	movlw	0
  3795  0137  00DF               	movwf	main@tinhnang+1
  3796  0138                     l3046:
  3797                           
  3798                           ;Mainprj2.c: 119:     if (tinhnang == 1) {
  3799  0138  035E               	decf	main@tinhnang,w
  3800  0139  045F               	iorwf	main@tinhnang+1,w
  3801  013A  1D03               	btfss	3,2
  3802  013B  293D               	goto	u3681
  3803  013C  293E               	goto	u3680
  3804  013D                     u3681:
  3805  013D  294F               	goto	l3052
  3806  013E                     u3680:
  3807  013E                     l3048:
  3808                           
  3809                           ;Mainprj2.c: 120:         Lcd_Set_Cursor(2,7);
  3810  013E  3007               	movlw	7
  3811  013F  00B9               	movwf	??_main
  3812  0140  0839               	movf	??_main,w
  3813  0141  00F6               	movwf	Lcd_Set_Cursor@b
  3814  0142  3002               	movlw	2
  3815  0143  120A  158A  2447  120A  118A  	fcall	_Lcd_Set_Cursor
  3816  0148                     l3050:
  3817                           
  3818                           ;Mainprj2.c: 121:         Lcd_Write_String("DngCua");
  3819  0148  3038               	movlw	(low ((STR_2-__stringbase)| (0+32768)))& (0+255)
  3820  0149  120A  158A  23BE  120A  118A  	fcall	_Lcd_Write_String
  3821                           
  3822                           ;Mainprj2.c: 122:     }
  3823  014E  29F7               	goto	l3094
  3824  014F                     l3052:
  3825  014F  3002               	movlw	2
  3826  0150  065E               	xorwf	main@tinhnang,w
  3827  0151  045F               	iorwf	main@tinhnang+1,w
  3828  0152  1D03               	btfss	3,2
  3829  0153  2955               	goto	u3691
  3830  0154  2956               	goto	u3690
  3831  0155                     u3691:
  3832  0155  2967               	goto	l3058
  3833  0156                     u3690:
  3834  0156                     l3054:
  3835                           
  3836                           ;Mainprj2.c: 124:         Lcd_Set_Cursor(2,7);
  3837  0156  3007               	movlw	7
  3838  0157  00B9               	movwf	??_main
  3839  0158  0839               	movf	??_main,w
  3840  0159  00F6               	movwf	Lcd_Set_Cursor@b
  3841  015A  3002               	movlw	2
  3842  015B  120A  158A  2447  120A  118A  	fcall	_Lcd_Set_Cursor
  3843  0160                     l3056:
  3844                           
  3845                           ;Mainprj2.c: 125:         Lcd_Write_String("Mo Cua");
  3846  0160  3031               	movlw	(low ((STR_3-__stringbase)| (0+32768)))& (0+255)
  3847  0161  120A  158A  23BE  120A  118A  	fcall	_Lcd_Write_String
  3848                           
  3849                           ;Mainprj2.c: 126:     }
  3850  0166  29F7               	goto	l3094
  3851  0167                     l3058:
  3852  0167  3003               	movlw	3
  3853  0168  065E               	xorwf	main@tinhnang,w
  3854  0169  045F               	iorwf	main@tinhnang+1,w
  3855  016A  1D03               	btfss	3,2
  3856  016B  296D               	goto	u3701
  3857  016C  296E               	goto	u3700
  3858  016D                     u3701:
  3859  016D  297F               	goto	l3064
  3860  016E                     u3700:
  3861  016E                     l3060:
  3862                           
  3863                           ;Mainprj2.c: 128:         Lcd_Set_Cursor(2,7);
  3864  016E  3007               	movlw	7
  3865  016F  00B9               	movwf	??_main
  3866  0170  0839               	movf	??_main,w
  3867  0171  00F6               	movwf	Lcd_Set_Cursor@b
  3868  0172  3002               	movlw	2
  3869  0173  120A  158A  2447  120A  118A  	fcall	_Lcd_Set_Cursor
  3870  0178                     l3062:
  3871                           
  3872                           ;Mainprj2.c: 129:         Lcd_Write_String("Mode 1");
  3873  0178  3015               	movlw	(low ((STR_4-__stringbase)| (0+32768)))& (0+255)
  3874  0179  120A  158A  23BE  120A  118A  	fcall	_Lcd_Write_String
  3875                           
  3876                           ;Mainprj2.c: 130:     }
  3877  017E  29F7               	goto	l3094
  3878  017F                     l3064:
  3879  017F  3004               	movlw	4
  3880  0180  065E               	xorwf	main@tinhnang,w
  3881  0181  045F               	iorwf	main@tinhnang+1,w
  3882  0182  1D03               	btfss	3,2
  3883  0183  2985               	goto	u3711
  3884  0184  2986               	goto	u3710
  3885  0185                     u3711:
  3886  0185  2997               	goto	l3070
  3887  0186                     u3710:
  3888  0186                     l3066:
  3889                           
  3890                           ;Mainprj2.c: 132:         Lcd_Set_Cursor(2,7);
  3891  0186  3007               	movlw	7
  3892  0187  00B9               	movwf	??_main
  3893  0188  0839               	movf	??_main,w
  3894  0189  00F6               	movwf	Lcd_Set_Cursor@b
  3895  018A  3002               	movlw	2
  3896  018B  120A  158A  2447  120A  118A  	fcall	_Lcd_Set_Cursor
  3897  0190                     l3068:
  3898                           
  3899                           ;Mainprj2.c: 133:         Lcd_Write_String("Mode 2");
  3900  0190  301C               	movlw	(low ((STR_5-__stringbase)| (0+32768)))& (0+255)
  3901  0191  120A  158A  23BE  120A  118A  	fcall	_Lcd_Write_String
  3902                           
  3903                           ;Mainprj2.c: 134:     }
  3904  0196  29F7               	goto	l3094
  3905  0197                     l3070:
  3906  0197  3005               	movlw	5
  3907  0198  065E               	xorwf	main@tinhnang,w
  3908  0199  045F               	iorwf	main@tinhnang+1,w
  3909  019A  1D03               	btfss	3,2
  3910  019B  299D               	goto	u3721
  3911  019C  299E               	goto	u3720
  3912  019D                     u3721:
  3913  019D  29AF               	goto	l3076
  3914  019E                     u3720:
  3915  019E                     l3072:
  3916                           
  3917                           ;Mainprj2.c: 136:         Lcd_Set_Cursor(2,7);
  3918  019E  3007               	movlw	7
  3919  019F  00B9               	movwf	??_main
  3920  01A0  0839               	movf	??_main,w
  3921  01A1  00F6               	movwf	Lcd_Set_Cursor@b
  3922  01A2  3002               	movlw	2
  3923  01A3  120A  158A  2447  120A  118A  	fcall	_Lcd_Set_Cursor
  3924  01A8                     l3074:
  3925                           
  3926                           ;Mainprj2.c: 137:         Lcd_Write_String("Mode 3");
  3927  01A8  3023               	movlw	(low ((STR_6-__stringbase)| (0+32768)))& (0+255)
  3928  01A9  120A  158A  23BE  120A  118A  	fcall	_Lcd_Write_String
  3929                           
  3930                           ;Mainprj2.c: 138:     }
  3931  01AE  29F7               	goto	l3094
  3932  01AF                     l3076:
  3933  01AF  3006               	movlw	6
  3934  01B0  065E               	xorwf	main@tinhnang,w
  3935  01B1  045F               	iorwf	main@tinhnang+1,w
  3936  01B2  1D03               	btfss	3,2
  3937  01B3  29B5               	goto	u3731
  3938  01B4  29B6               	goto	u3730
  3939  01B5                     u3731:
  3940  01B5  29C7               	goto	l3082
  3941  01B6                     u3730:
  3942  01B6                     l3078:
  3943                           
  3944                           ;Mainprj2.c: 140:         Lcd_Set_Cursor(2,7);
  3945  01B6  3007               	movlw	7
  3946  01B7  00B9               	movwf	??_main
  3947  01B8  0839               	movf	??_main,w
  3948  01B9  00F6               	movwf	Lcd_Set_Cursor@b
  3949  01BA  3002               	movlw	2
  3950  01BB  120A  158A  2447  120A  118A  	fcall	_Lcd_Set_Cursor
  3951  01C0                     l3080:
  3952                           
  3953                           ;Mainprj2.c: 141:         Lcd_Write_String("AllOff");
  3954  01C0  3046               	movlw	(low ((STR_7-__stringbase)| (0+32768)))& (0+255)
  3955  01C1  120A  158A  23BE  120A  118A  	fcall	_Lcd_Write_String
  3956                           
  3957                           ;Mainprj2.c: 142:     }
  3958  01C6  29F7               	goto	l3094
  3959  01C7                     l3082:
  3960  01C7  3007               	movlw	7
  3961  01C8  065E               	xorwf	main@tinhnang,w
  3962  01C9  045F               	iorwf	main@tinhnang+1,w
  3963  01CA  1D03               	btfss	3,2
  3964  01CB  29CD               	goto	u3741
  3965  01CC  29CE               	goto	u3740
  3966  01CD                     u3741:
  3967  01CD  29DF               	goto	l3088
  3968  01CE                     u3740:
  3969  01CE                     l3084:
  3970                           
  3971                           ;Mainprj2.c: 144:         {;Mainprj2.c: 145:         Lcd_Set_Cursor(2,7);
  3972  01CE  3007               	movlw	7
  3973  01CF  00B9               	movwf	??_main
  3974  01D0  0839               	movf	??_main,w
  3975  01D1  00F6               	movwf	Lcd_Set_Cursor@b
  3976  01D2  3002               	movlw	2
  3977  01D3  120A  158A  2447  120A  118A  	fcall	_Lcd_Set_Cursor
  3978  01D8                     l3086:
  3979                           
  3980                           ;Mainprj2.c: 146:         Lcd_Write_String("All On");
  3981  01D8  304D               	movlw	(low ((STR_8-__stringbase)| (0+32768)))& (0+255)
  3982  01D9  120A  158A  23BE  120A  118A  	fcall	_Lcd_Write_String
  3983                           
  3984                           ;Mainprj2.c: 147:     };Mainprj2.c: 148:     }
  3985  01DE  29F7               	goto	l3094
  3986  01DF                     l3088:
  3987  01DF  3008               	movlw	8
  3988  01E0  065E               	xorwf	main@tinhnang,w
  3989  01E1  045F               	iorwf	main@tinhnang+1,w
  3990  01E2  1D03               	btfss	3,2
  3991  01E3  29E5               	goto	u3751
  3992  01E4  29E6               	goto	u3750
  3993  01E5                     u3751:
  3994  01E5  29F7               	goto	l130
  3995  01E6                     u3750:
  3996  01E6                     l3090:
  3997                           
  3998                           ;Mainprj2.c: 150:         {;Mainprj2.c: 151:         Lcd_Set_Cursor(2,7);
  3999  01E6  3007               	movlw	7
  4000  01E7  00B9               	movwf	??_main
  4001  01E8  0839               	movf	??_main,w
  4002  01E9  00F6               	movwf	Lcd_Set_Cursor@b
  4003  01EA  3002               	movlw	2
  4004  01EB  120A  158A  2447  120A  118A  	fcall	_Lcd_Set_Cursor
  4005  01F0                     l3092:
  4006                           
  4007                           ;Mainprj2.c: 152:         Lcd_Write_String("chu xe");
  4008  01F0  303F               	movlw	(low ((STR_9-__stringbase)| (0+32768)))& (0+255)
  4009  01F1  120A  158A  23BE  120A  118A  	fcall	_Lcd_Write_String
  4010  01F6  29F7               	goto	l3094
  4011  01F7                     l130:
  4012  01F7                     l3094:
  4013                           
  4014                           ;Mainprj2.c: 155:     Lcd_Set_Cursor(2,13);
  4015  01F7  300D               	movlw	13
  4016  01F8  1283               	bcf	3,5	;RP0=0, select bank0
  4017  01F9  1303               	bcf	3,6	;RP1=0, select bank0
  4018  01FA  00B9               	movwf	??_main
  4019  01FB  0839               	movf	??_main,w
  4020  01FC  00F6               	movwf	Lcd_Set_Cursor@b
  4021  01FD  3002               	movlw	2
  4022  01FE  120A  158A  2447  120A  118A  	fcall	_Lcd_Set_Cursor
  4023                           
  4024                           ;Mainprj2.c: 156:     Lcd_Write_String(":");
  4025  0203  3067               	movlw	(low ((STR_10-__stringbase)| (0+32768)))& (0+255)
  4026  0204  120A  158A  23BE  120A  118A  	fcall	_Lcd_Write_String
  4027  0209                     l3096:
  4028                           
  4029                           ;Mainprj2.c: 157:     if (trangthai==0) {
  4030  0209  1283               	bcf	3,5	;RP0=0, select bank0
  4031  020A  1303               	bcf	3,6	;RP1=0, select bank0
  4032  020B  085A               	movf	main@trangthai,w
  4033  020C  045B               	iorwf	main@trangthai+1,w
  4034  020D  1D03               	btfss	3,2
  4035  020E  2A10               	goto	u3761
  4036  020F  2A11               	goto	u3760
  4037  0210                     u3761:
  4038  0210  2A21               	goto	l3102
  4039  0211                     u3760:
  4040  0211                     l3098:
  4041                           
  4042                           ;Mainprj2.c: 158:     Lcd_Set_Cursor(2,14);
  4043  0211  300E               	movlw	14
  4044  0212  00B9               	movwf	??_main
  4045  0213  0839               	movf	??_main,w
  4046  0214  00F6               	movwf	Lcd_Set_Cursor@b
  4047  0215  3002               	movlw	2
  4048  0216  120A  158A  2447  120A  118A  	fcall	_Lcd_Set_Cursor
  4049  021B                     l3100:
  4050                           
  4051                           ;Mainprj2.c: 159:     Lcd_Write_String("   ");
  4052  021B  3054               	movlw	(low ((STR_11-__stringbase)| (0+32768)))& (0+255)
  4053  021C  120A  158A  23BE  120A  118A  	fcall	_Lcd_Write_String
  4054  0221                     l3102:
  4055                           
  4056                           ;Mainprj2.c: 161:     if (trangthai==1) {
  4057  0221  1283               	bcf	3,5	;RP0=0, select bank0
  4058  0222  1303               	bcf	3,6	;RP1=0, select bank0
  4059  0223  035A               	decf	main@trangthai,w
  4060  0224  045B               	iorwf	main@trangthai+1,w
  4061  0225  1D03               	btfss	3,2
  4062  0226  2A28               	goto	u3771
  4063  0227  2A29               	goto	u3770
  4064  0228                     u3771:
  4065  0228  2A39               	goto	l3108
  4066  0229                     u3770:
  4067  0229                     l3104:
  4068                           
  4069                           ;Mainprj2.c: 162:     Lcd_Set_Cursor(2,14);
  4070  0229  300E               	movlw	14
  4071  022A  00B9               	movwf	??_main
  4072  022B  0839               	movf	??_main,w
  4073  022C  00F6               	movwf	Lcd_Set_Cursor@b
  4074  022D  3002               	movlw	2
  4075  022E  120A  158A  2447  120A  118A  	fcall	_Lcd_Set_Cursor
  4076  0233                     l3106:
  4077                           
  4078                           ;Mainprj2.c: 163:     Lcd_Write_String("OK ");
  4079  0233  3058               	movlw	(low ((STR_12-__stringbase)| (0+32768)))& (0+255)
  4080  0234  120A  158A  23BE  120A  118A  	fcall	_Lcd_Write_String
  4081  0239                     l3108:
  4082                           
  4083                           ;Mainprj2.c: 165:     if (trangthai==2) {
  4084  0239  3002               	movlw	2
  4085  023A  1283               	bcf	3,5	;RP0=0, select bank0
  4086  023B  1303               	bcf	3,6	;RP1=0, select bank0
  4087  023C  065A               	xorwf	main@trangthai,w
  4088  023D  045B               	iorwf	main@trangthai+1,w
  4089  023E  1D03               	btfss	3,2
  4090  023F  2A41               	goto	u3781
  4091  0240  2A42               	goto	u3780
  4092  0241                     u3781:
  4093  0241  2A52               	goto	l3114
  4094  0242                     u3780:
  4095  0242                     l3110:
  4096                           
  4097                           ;Mainprj2.c: 166:     Lcd_Set_Cursor(2,14);
  4098  0242  300E               	movlw	14
  4099  0243  00B9               	movwf	??_main
  4100  0244  0839               	movf	??_main,w
  4101  0245  00F6               	movwf	Lcd_Set_Cursor@b
  4102  0246  3002               	movlw	2
  4103  0247  120A  158A  2447  120A  118A  	fcall	_Lcd_Set_Cursor
  4104  024C                     l3112:
  4105                           
  4106                           ;Mainprj2.c: 167:     Lcd_Write_String("ON ");
  4107  024C  305C               	movlw	(low ((STR_13-__stringbase)| (0+32768)))& (0+255)
  4108  024D  120A  158A  23BE  120A  118A  	fcall	_Lcd_Write_String
  4109  0252                     l3114:
  4110                           
  4111                           ;Mainprj2.c: 170:     if (trangthai==3) {
  4112  0252  3003               	movlw	3
  4113  0253  1283               	bcf	3,5	;RP0=0, select bank0
  4114  0254  1303               	bcf	3,6	;RP1=0, select bank0
  4115  0255  065A               	xorwf	main@trangthai,w
  4116  0256  045B               	iorwf	main@trangthai+1,w
  4117  0257  1D03               	btfss	3,2
  4118  0258  2A5A               	goto	u3791
  4119  0259  2A5B               	goto	u3790
  4120  025A                     u3791:
  4121  025A  2A6B               	goto	l3120
  4122  025B                     u3790:
  4123  025B                     l3116:
  4124                           
  4125                           ;Mainprj2.c: 171:     Lcd_Set_Cursor(2,14);
  4126  025B  300E               	movlw	14
  4127  025C  00B9               	movwf	??_main
  4128  025D  0839               	movf	??_main,w
  4129  025E  00F6               	movwf	Lcd_Set_Cursor@b
  4130  025F  3002               	movlw	2
  4131  0260  120A  158A  2447  120A  118A  	fcall	_Lcd_Set_Cursor
  4132  0265                     l3118:
  4133                           
  4134                           ;Mainprj2.c: 172:     Lcd_Write_String("OFF");
  4135  0265  3060               	movlw	(low ((STR_14-__stringbase)| (0+32768)))& (0+255)
  4136  0266  120A  158A  23BE  120A  118A  	fcall	_Lcd_Write_String
  4137  026B                     l3120:
  4138                           
  4139                           ;Mainprj2.c: 174:     if ( tinhnang == 3 && trangthaim1 ==0) {
  4140  026B  3003               	movlw	3
  4141  026C  1283               	bcf	3,5	;RP0=0, select bank0
  4142  026D  1303               	bcf	3,6	;RP1=0, select bank0
  4143  026E  065E               	xorwf	main@tinhnang,w
  4144  026F  045F               	iorwf	main@tinhnang+1,w
  4145  0270  1D03               	btfss	3,2
  4146  0271  2A73               	goto	u3801
  4147  0272  2A74               	goto	u3800
  4148  0273                     u3801:
  4149  0273  2A7F               	goto	l3126
  4150  0274                     u3800:
  4151  0274                     l3122:
  4152  0274  0850               	movf	main@trangthaim1,w
  4153  0275  0451               	iorwf	main@trangthaim1+1,w
  4154  0276  1D03               	btfss	3,2
  4155  0277  2A79               	goto	u3811
  4156  0278  2A7A               	goto	u3810
  4157  0279                     u3811:
  4158  0279  2A7F               	goto	l3126
  4159  027A                     u3810:
  4160  027A                     l3124:
  4161                           
  4162                           ;Mainprj2.c: 175:         trangthai = 3;
  4163  027A  3003               	movlw	3
  4164  027B  00DA               	movwf	main@trangthai
  4165  027C  3000               	movlw	0
  4166  027D  00DB               	movwf	main@trangthai+1
  4167                           
  4168                           ;Mainprj2.c: 176:     }
  4169  027E  2B2F               	goto	l3202
  4170  027F                     l3126:
  4171  027F  3003               	movlw	3
  4172  0280  065E               	xorwf	main@tinhnang,w
  4173  0281  045F               	iorwf	main@tinhnang+1,w
  4174  0282  1D03               	btfss	3,2
  4175  0283  2A85               	goto	u3821
  4176  0284  2A86               	goto	u3820
  4177  0285                     u3821:
  4178  0285  2A91               	goto	l3132
  4179  0286                     u3820:
  4180  0286                     l3128:
  4181  0286  0350               	decf	main@trangthaim1,w
  4182  0287  0451               	iorwf	main@trangthaim1+1,w
  4183  0288  1D03               	btfss	3,2
  4184  0289  2A8B               	goto	u3831
  4185  028A  2A8C               	goto	u3830
  4186  028B                     u3831:
  4187  028B  2A91               	goto	l3132
  4188  028C                     u3830:
  4189  028C                     l3130:
  4190                           
  4191                           ;Mainprj2.c: 178:         trangthai = 2;
  4192  028C  3002               	movlw	2
  4193  028D  00DA               	movwf	main@trangthai
  4194  028E  3000               	movlw	0
  4195  028F  00DB               	movwf	main@trangthai+1
  4196                           
  4197                           ;Mainprj2.c: 179:     }
  4198  0290  2B2F               	goto	l3202
  4199  0291                     l3132:
  4200  0291  3004               	movlw	4
  4201  0292  065E               	xorwf	main@tinhnang,w
  4202  0293  045F               	iorwf	main@tinhnang+1,w
  4203  0294  1D03               	btfss	3,2
  4204  0295  2A97               	goto	u3841
  4205  0296  2A98               	goto	u3840
  4206  0297                     u3841:
  4207  0297  2A9F               	goto	l3138
  4208  0298                     u3840:
  4209  0298                     l3134:
  4210  0298  0852               	movf	main@trangthaim2,w
  4211  0299  0453               	iorwf	main@trangthaim2+1,w
  4212  029A  1D03               	btfss	3,2
  4213  029B  2A9D               	goto	u3851
  4214  029C  2A9E               	goto	u3850
  4215  029D                     u3851:
  4216  029D  2A9F               	goto	l3138
  4217  029E                     u3850:
  4218  029E  2A7A               	goto	l3124
  4219  029F                     l3138:
  4220  029F  3004               	movlw	4
  4221  02A0  065E               	xorwf	main@tinhnang,w
  4222  02A1  045F               	iorwf	main@tinhnang+1,w
  4223  02A2  1D03               	btfss	3,2
  4224  02A3  2AA5               	goto	u3861
  4225  02A4  2AA6               	goto	u3860
  4226  02A5                     u3861:
  4227  02A5  2AAD               	goto	l3144
  4228  02A6                     u3860:
  4229  02A6                     l3140:
  4230  02A6  0352               	decf	main@trangthaim2,w
  4231  02A7  0453               	iorwf	main@trangthaim2+1,w
  4232  02A8  1D03               	btfss	3,2
  4233  02A9  2AAB               	goto	u3871
  4234  02AA  2AAC               	goto	u3870
  4235  02AB                     u3871:
  4236  02AB  2AAD               	goto	l3144
  4237  02AC                     u3870:
  4238  02AC  2A8C               	goto	l3130
  4239  02AD                     l3144:
  4240  02AD  3005               	movlw	5
  4241  02AE  065E               	xorwf	main@tinhnang,w
  4242  02AF  045F               	iorwf	main@tinhnang+1,w
  4243  02B0  1D03               	btfss	3,2
  4244  02B1  2AB3               	goto	u3881
  4245  02B2  2AB4               	goto	u3880
  4246  02B3                     u3881:
  4247  02B3  2ABB               	goto	l3150
  4248  02B4                     u3880:
  4249  02B4                     l3146:
  4250  02B4  0854               	movf	main@trangthaim3,w
  4251  02B5  0455               	iorwf	main@trangthaim3+1,w
  4252  02B6  1D03               	btfss	3,2
  4253  02B7  2AB9               	goto	u3891
  4254  02B8  2ABA               	goto	u3890
  4255  02B9                     u3891:
  4256  02B9  2ABB               	goto	l3150
  4257  02BA                     u3890:
  4258  02BA  2A7A               	goto	l3124
  4259  02BB                     l3150:
  4260  02BB  3005               	movlw	5
  4261  02BC  065E               	xorwf	main@tinhnang,w
  4262  02BD  045F               	iorwf	main@tinhnang+1,w
  4263  02BE  1D03               	btfss	3,2
  4264  02BF  2AC1               	goto	u3901
  4265  02C0  2AC2               	goto	u3900
  4266  02C1                     u3901:
  4267  02C1  2AC9               	goto	l3156
  4268  02C2                     u3900:
  4269  02C2                     l3152:
  4270  02C2  0354               	decf	main@trangthaim3,w
  4271  02C3  0455               	iorwf	main@trangthaim3+1,w
  4272  02C4  1D03               	btfss	3,2
  4273  02C5  2AC7               	goto	u3911
  4274  02C6  2AC8               	goto	u3910
  4275  02C7                     u3911:
  4276  02C7  2AC9               	goto	l3156
  4277  02C8                     u3910:
  4278  02C8  2A8C               	goto	l3130
  4279  02C9                     l3156:
  4280  02C9  3008               	movlw	8
  4281  02CA  065E               	xorwf	main@tinhnang,w
  4282  02CB  045F               	iorwf	main@tinhnang+1,w
  4283  02CC  1D03               	btfss	3,2
  4284  02CD  2ACF               	goto	u3921
  4285  02CE  2AD0               	goto	u3920
  4286  02CF                     u3921:
  4287  02CF  2AD7               	goto	l3162
  4288  02D0                     u3920:
  4289  02D0                     l3158:
  4290  02D0  084E               	movf	main@trangthaim4,w
  4291  02D1  044F               	iorwf	main@trangthaim4+1,w
  4292  02D2  1D03               	btfss	3,2
  4293  02D3  2AD5               	goto	u3931
  4294  02D4  2AD6               	goto	u3930
  4295  02D5                     u3931:
  4296  02D5  2AD7               	goto	l3162
  4297  02D6                     u3930:
  4298  02D6  2A7A               	goto	l3124
  4299  02D7                     l3162:
  4300  02D7  3008               	movlw	8
  4301  02D8  065E               	xorwf	main@tinhnang,w
  4302  02D9  045F               	iorwf	main@tinhnang+1,w
  4303  02DA  1D03               	btfss	3,2
  4304  02DB  2ADD               	goto	u3941
  4305  02DC  2ADE               	goto	u3940
  4306  02DD                     u3941:
  4307  02DD  2AE5               	goto	l3168
  4308  02DE                     u3940:
  4309  02DE                     l3164:
  4310  02DE  034E               	decf	main@trangthaim4,w
  4311  02DF  044F               	iorwf	main@trangthaim4+1,w
  4312  02E0  1D03               	btfss	3,2
  4313  02E1  2AE3               	goto	u3951
  4314  02E2  2AE4               	goto	u3950
  4315  02E3                     u3951:
  4316  02E3  2AE5               	goto	l3168
  4317  02E4                     u3950:
  4318  02E4  2A8C               	goto	l3130
  4319  02E5                     l3168:
  4320  02E5  035E               	decf	main@tinhnang,w
  4321  02E6  045F               	iorwf	main@tinhnang+1,w
  4322  02E7  1D03               	btfss	3,2
  4323  02E8  2AEA               	goto	u3961
  4324  02E9  2AEB               	goto	u3960
  4325  02EA                     u3961:
  4326  02EA  2B05               	goto	l3176
  4327  02EB                     u3960:
  4328  02EB                     l3170:
  4329  02EB  035A               	decf	main@trangthai,w
  4330  02EC  045B               	iorwf	main@trangthai+1,w
  4331  02ED  1D03               	btfss	3,2
  4332  02EE  2AF0               	goto	u3971
  4333  02EF  2AF1               	goto	u3970
  4334  02F0                     u3971:
  4335  02F0  2B05               	goto	l3176
  4336  02F1                     u3970:
  4337  02F1                     l3172:
  4338                           
  4339                           ;Mainprj2.c: 199:     {;Mainprj2.c: 200:         _delay((unsigned long)((1000)*(20000000
      +                          /4000.0)));
  4340  02F1  301A               	movlw	26
  4341  02F2  1283               	bcf	3,5	;RP0=0, select bank0
  4342  02F3  1303               	bcf	3,6	;RP1=0, select bank0
  4343  02F4  00BB               	movwf	??_main+2
  4344  02F5  305E               	movlw	94
  4345  02F6  00BA               	movwf	??_main+1
  4346  02F7  306D               	movlw	109
  4347  02F8  00B9               	movwf	??_main
  4348  02F9                     u4617:
  4349  02F9  0BB9               	decfsz	??_main,f
  4350  02FA  2AF9               	goto	u4617
  4351  02FB  0BBA               	decfsz	??_main+1,f
  4352  02FC  2AF9               	goto	u4617
  4353  02FD  0BBB               	decfsz	??_main+2,f
  4354  02FE  2AF9               	goto	u4617
  4355  02FF  2B00               	nop2
  4356  0300                     l3174:
  4357                           
  4358                           ;Mainprj2.c: 201:         trangthai = 0;
  4359  0300  1283               	bcf	3,5	;RP0=0, select bank0
  4360  0301  1303               	bcf	3,6	;RP1=0, select bank0
  4361  0302  01DA               	clrf	main@trangthai
  4362  0303  01DB               	clrf	main@trangthai+1
  4363                           
  4364                           ;Mainprj2.c: 202:     }
  4365  0304  2B2F               	goto	l3202
  4366  0305                     l3176:
  4367  0305  3002               	movlw	2
  4368  0306  065E               	xorwf	main@tinhnang,w
  4369  0307  045F               	iorwf	main@tinhnang+1,w
  4370  0308  1D03               	btfss	3,2
  4371  0309  2B0B               	goto	u3981
  4372  030A  2B0C               	goto	u3980
  4373  030B                     u3981:
  4374  030B  2B13               	goto	l3184
  4375  030C                     u3980:
  4376  030C                     l3178:
  4377  030C  035A               	decf	main@trangthai,w
  4378  030D  045B               	iorwf	main@trangthai+1,w
  4379  030E  1D03               	btfss	3,2
  4380  030F  2B11               	goto	u3991
  4381  0310  2B12               	goto	u3990
  4382  0311                     u3991:
  4383  0311  2B13               	goto	l3184
  4384  0312                     u3990:
  4385  0312  2AF1               	goto	l3172
  4386  0313                     l3184:
  4387  0313  3006               	movlw	6
  4388  0314  065E               	xorwf	main@tinhnang,w
  4389  0315  045F               	iorwf	main@tinhnang+1,w
  4390  0316  1D03               	btfss	3,2
  4391  0317  2B19               	goto	u4001
  4392  0318  2B1A               	goto	u4000
  4393  0319                     u4001:
  4394  0319  2B21               	goto	l3192
  4395  031A                     u4000:
  4396  031A                     l3186:
  4397  031A  035A               	decf	main@trangthai,w
  4398  031B  045B               	iorwf	main@trangthai+1,w
  4399  031C  1D03               	btfss	3,2
  4400  031D  2B1F               	goto	u4011
  4401  031E  2B20               	goto	u4010
  4402  031F                     u4011:
  4403  031F  2B21               	goto	l3192
  4404  0320                     u4010:
  4405  0320  2AF1               	goto	l3172
  4406  0321                     l3192:
  4407  0321  3007               	movlw	7
  4408  0322  065E               	xorwf	main@tinhnang,w
  4409  0323  045F               	iorwf	main@tinhnang+1,w
  4410  0324  1D03               	btfss	3,2
  4411  0325  2B27               	goto	u4021
  4412  0326  2B28               	goto	u4020
  4413  0327                     u4021:
  4414  0327  2B00               	goto	l3174
  4415  0328                     u4020:
  4416  0328                     l3194:
  4417  0328  035A               	decf	main@trangthai,w
  4418  0329  045B               	iorwf	main@trangthai+1,w
  4419  032A  1D03               	btfss	3,2
  4420  032B  2B2D               	goto	u4031
  4421  032C  2B2E               	goto	u4030
  4422  032D                     u4031:
  4423  032D  2B00               	goto	l3174
  4424  032E                     u4030:
  4425  032E  2AF1               	goto	l3172
  4426  032F                     l3202:
  4427                           
  4428                           ;Mainprj2.c: 219:     if ( mocua > 0 && dongcua == 0 ) {
  4429  032F  0849               	movf	main@mocua+1,w
  4430  0330  3A80               	xorlw	128
  4431  0331  00FF               	movwf	btemp+1
  4432  0332  3080               	movlw	128
  4433  0333  027F               	subwf	btemp+1,w
  4434  0334  1D03               	skipz
  4435  0335  2B38               	goto	u4045
  4436  0336  3001               	movlw	1
  4437  0337  0248               	subwf	main@mocua,w
  4438  0338                     u4045:
  4439  0338  1C03               	skipc
  4440  0339  2B3B               	goto	u4041
  4441  033A  2B3C               	goto	u4040
  4442  033B                     u4041:
  4443  033B  2B52               	goto	l3210
  4444  033C                     u4040:
  4445  033C                     l3204:
  4446  033C  1283               	bcf	3,5	;RP0=0, select bank0
  4447  033D  1303               	bcf	3,6	;RP1=0, select bank0
  4448  033E  0846               	movf	main@dongcua,w
  4449  033F  0447               	iorwf	main@dongcua+1,w
  4450  0340  1D03               	btfss	3,2
  4451  0341  2B43               	goto	u4051
  4452  0342  2B44               	goto	u4050
  4453  0343                     u4051:
  4454  0343  2B52               	goto	l3210
  4455  0344                     u4050:
  4456  0344                     l3206:
  4457                           
  4458                           ;Mainprj2.c: 220:     Lcd_Set_Cursor(1,1);
  4459  0344  01F6               	clrf	Lcd_Set_Cursor@b
  4460  0345  0AF6               	incf	Lcd_Set_Cursor@b,f
  4461  0346  3001               	movlw	1
  4462  0347  120A  158A  2447  120A  118A  	fcall	_Lcd_Set_Cursor
  4463  034C                     l3208:
  4464                           
  4465                           ;Mainprj2.c: 221:     Lcd_Write_String(" Dang Mo ");
  4466  034C  3001               	movlw	(low ((STR_15-__stringbase)| (0+32768)))& (0+255)
  4467  034D  120A  158A  23BE  120A  118A  	fcall	_Lcd_Write_String
  4468  0352                     l3210:
  4469                           
  4470                           ;Mainprj2.c: 223:     if ( mocua == 0 && dongcua > 0 ) {
  4471  0352  1283               	bcf	3,5	;RP0=0, select bank0
  4472  0353  1303               	bcf	3,6	;RP1=0, select bank0
  4473  0354  0848               	movf	main@mocua,w
  4474  0355  0449               	iorwf	main@mocua+1,w
  4475  0356  1D03               	btfss	3,2
  4476  0357  2B59               	goto	u4061
  4477  0358  2B5A               	goto	u4060
  4478  0359                     u4061:
  4479  0359  2B75               	goto	l3218
  4480  035A                     u4060:
  4481  035A                     l3212:
  4482  035A  0847               	movf	main@dongcua+1,w
  4483  035B  3A80               	xorlw	128
  4484  035C  00FF               	movwf	btemp+1
  4485  035D  3080               	movlw	128
  4486  035E  027F               	subwf	btemp+1,w
  4487  035F  1D03               	skipz
  4488  0360  2B63               	goto	u4075
  4489  0361  3001               	movlw	1
  4490  0362  0246               	subwf	main@dongcua,w
  4491  0363                     u4075:
  4492  0363  1C03               	skipc
  4493  0364  2B66               	goto	u4071
  4494  0365  2B67               	goto	u4070
  4495  0366                     u4071:
  4496  0366  2B75               	goto	l3218
  4497  0367                     u4070:
  4498  0367                     l3214:
  4499                           
  4500                           ;Mainprj2.c: 224:     Lcd_Set_Cursor(1,1);
  4501  0367  01F6               	clrf	Lcd_Set_Cursor@b
  4502  0368  0AF6               	incf	Lcd_Set_Cursor@b,f
  4503  0369  3001               	movlw	1
  4504  036A  120A  158A  2447  120A  118A  	fcall	_Lcd_Set_Cursor
  4505  036F                     l3216:
  4506                           
  4507                           ;Mainprj2.c: 225:     Lcd_Write_String("Dang Dong");
  4508  036F  300B               	movlw	(low ((STR_16-__stringbase)| (0+32768)))& (0+255)
  4509  0370  120A  158A  23BE  120A  118A  	fcall	_Lcd_Write_String
  4510  0375                     l3218:
  4511                           
  4512                           ;Mainprj2.c: 227:     if (trangthaim1==0)
  4513  0375  1283               	bcf	3,5	;RP0=0, select bank0
  4514  0376  1303               	bcf	3,6	;RP1=0, select bank0
  4515  0377  0850               	movf	main@trangthaim1,w
  4516  0378  0451               	iorwf	main@trangthaim1+1,w
  4517  0379  1D03               	btfss	3,2
  4518  037A  2B7C               	goto	u4081
  4519  037B  2B7D               	goto	u4080
  4520  037C                     u4081:
  4521  037C  2B8E               	goto	l3224
  4522  037D                     u4080:
  4523  037D                     l3220:
  4524                           
  4525                           ;Mainprj2.c: 228:     {;Mainprj2.c: 229:     Lcd_Set_Cursor(1,11);
  4526  037D  300B               	movlw	11
  4527  037E  00B9               	movwf	??_main
  4528  037F  0839               	movf	??_main,w
  4529  0380  00F6               	movwf	Lcd_Set_Cursor@b
  4530  0381  3001               	movlw	1
  4531  0382  120A  158A  2447  120A  118A  	fcall	_Lcd_Set_Cursor
  4532  0387                     l3222:
  4533                           
  4534                           ;Mainprj2.c: 230:     Lcd_Write_String(" ");
  4535  0387  3056               	movlw	(low (((STR_11+2)-__stringbase)| (0+32768)))& (0+255)
  4536  0388  120A  158A  23BE  120A  118A  	fcall	_Lcd_Write_String
  4537                           
  4538                           ;Mainprj2.c: 231:     }
  4539  038D  2B9E               	goto	l3228
  4540  038E                     l3224:
  4541                           
  4542                           ;Mainprj2.c: 233:     {;Mainprj2.c: 234:     Lcd_Set_Cursor(1,11);
  4543  038E  300B               	movlw	11
  4544  038F  00B9               	movwf	??_main
  4545  0390  0839               	movf	??_main,w
  4546  0391  00F6               	movwf	Lcd_Set_Cursor@b
  4547  0392  3001               	movlw	1
  4548  0393  120A  158A  2447  120A  118A  	fcall	_Lcd_Set_Cursor
  4549  0398                     l3226:
  4550                           
  4551                           ;Mainprj2.c: 235:     Lcd_Write_String("1");
  4552  0398  301A               	movlw	(low (((STR_4+5)-__stringbase)| (0+32768)))& (0+255)
  4553  0399  120A  158A  23BE  120A  118A  	fcall	_Lcd_Write_String
  4554  039E                     l3228:
  4555                           
  4556                           ;Mainprj2.c: 237:         if (trangthaim2==0)
  4557  039E  1283               	bcf	3,5	;RP0=0, select bank0
  4558  039F  1303               	bcf	3,6	;RP1=0, select bank0
  4559  03A0  0852               	movf	main@trangthaim2,w
  4560  03A1  0453               	iorwf	main@trangthaim2+1,w
  4561  03A2  1D03               	btfss	3,2
  4562  03A3  2BA5               	goto	u4091
  4563  03A4  2BA6               	goto	u4090
  4564  03A5                     u4091:
  4565  03A5  2BB7               	goto	l3234
  4566  03A6                     u4090:
  4567  03A6                     l3230:
  4568                           
  4569                           ;Mainprj2.c: 238:     {;Mainprj2.c: 239:     Lcd_Set_Cursor(1,13);
  4570  03A6  300D               	movlw	13
  4571  03A7  00B9               	movwf	??_main
  4572  03A8  0839               	movf	??_main,w
  4573  03A9  00F6               	movwf	Lcd_Set_Cursor@b
  4574  03AA  3001               	movlw	1
  4575  03AB  120A  158A  2447  120A  118A  	fcall	_Lcd_Set_Cursor
  4576  03B0                     l3232:
  4577                           
  4578                           ;Mainprj2.c: 240:     Lcd_Write_String(" ");
  4579  03B0  3056               	movlw	(low (((STR_11+2)-__stringbase)| (0+32768)))& (0+255)
  4580  03B1  120A  158A  23BE  120A  118A  	fcall	_Lcd_Write_String
  4581                           
  4582                           ;Mainprj2.c: 241:     }
  4583  03B6  2BC7               	goto	l3238
  4584  03B7                     l3234:
  4585                           
  4586                           ;Mainprj2.c: 243:     {;Mainprj2.c: 244:     Lcd_Set_Cursor(1,13);
  4587  03B7  300D               	movlw	13
  4588  03B8  00B9               	movwf	??_main
  4589  03B9  0839               	movf	??_main,w
  4590  03BA  00F6               	movwf	Lcd_Set_Cursor@b
  4591  03BB  3001               	movlw	1
  4592  03BC  120A  158A  2447  120A  118A  	fcall	_Lcd_Set_Cursor
  4593  03C1                     l3236:
  4594                           
  4595                           ;Mainprj2.c: 245:     Lcd_Write_String("2");
  4596  03C1  3021               	movlw	(low (((STR_5+5)-__stringbase)| (0+32768)))& (0+255)
  4597  03C2  120A  158A  23BE  120A  118A  	fcall	_Lcd_Write_String
  4598  03C7                     l3238:
  4599                           
  4600                           ;Mainprj2.c: 247:             if (trangthaim3==0)
  4601  03C7  1283               	bcf	3,5	;RP0=0, select bank0
  4602  03C8  1303               	bcf	3,6	;RP1=0, select bank0
  4603  03C9  0854               	movf	main@trangthaim3,w
  4604  03CA  0455               	iorwf	main@trangthaim3+1,w
  4605  03CB  1D03               	btfss	3,2
  4606  03CC  2BCE               	goto	u4101
  4607  03CD  2BCF               	goto	u4100
  4608  03CE                     u4101:
  4609  03CE  2BE0               	goto	l3244
  4610  03CF                     u4100:
  4611  03CF                     l3240:
  4612                           
  4613                           ;Mainprj2.c: 248:     {;Mainprj2.c: 249:     Lcd_Set_Cursor(1,15);
  4614  03CF  300F               	movlw	15
  4615  03D0  00B9               	movwf	??_main
  4616  03D1  0839               	movf	??_main,w
  4617  03D2  00F6               	movwf	Lcd_Set_Cursor@b
  4618  03D3  3001               	movlw	1
  4619  03D4  120A  158A  2447  120A  118A  	fcall	_Lcd_Set_Cursor
  4620  03D9                     l3242:
  4621                           
  4622                           ;Mainprj2.c: 250:     Lcd_Write_String(" ");
  4623  03D9  3056               	movlw	(low (((STR_11+2)-__stringbase)| (0+32768)))& (0+255)
  4624  03DA  120A  158A  23BE  120A  118A  	fcall	_Lcd_Write_String
  4625                           
  4626                           ;Mainprj2.c: 251:     }
  4627  03DF  2BF0               	goto	l3248
  4628  03E0                     l3244:
  4629                           
  4630                           ;Mainprj2.c: 253:     {;Mainprj2.c: 254:     Lcd_Set_Cursor(1,15);
  4631  03E0  300F               	movlw	15
  4632  03E1  00B9               	movwf	??_main
  4633  03E2  0839               	movf	??_main,w
  4634  03E3  00F6               	movwf	Lcd_Set_Cursor@b
  4635  03E4  3001               	movlw	1
  4636  03E5  120A  158A  2447  120A  118A  	fcall	_Lcd_Set_Cursor
  4637  03EA                     l3246:
  4638                           
  4639                           ;Mainprj2.c: 255:     Lcd_Write_String("3");
  4640  03EA  3028               	movlw	(low (((STR_6+5)-__stringbase)| (0+32768)))& (0+255)
  4641  03EB  120A  158A  23BE  120A  118A  	fcall	_Lcd_Write_String
  4642  03F0                     l3248:
  4643                           
  4644                           ;Mainprj2.c: 257:                 if (trangthaim4==0)
  4645  03F0  1283               	bcf	3,5	;RP0=0, select bank0
  4646  03F1  1303               	bcf	3,6	;RP1=0, select bank0
  4647  03F2  084E               	movf	main@trangthaim4,w
  4648  03F3  044F               	iorwf	main@trangthaim4+1,w
  4649  03F4  1D03               	btfss	3,2
  4650  03F5  2BF7               	goto	u4111
  4651  03F6  2BF8               	goto	u4110
  4652  03F7                     u4111:
  4653  03F7  2C09               	goto	l3254
  4654  03F8                     u4110:
  4655  03F8                     l3250:
  4656                           
  4657                           ;Mainprj2.c: 258:     {;Mainprj2.c: 259:     Lcd_Set_Cursor(1,16);
  4658  03F8  3010               	movlw	16
  4659  03F9  00B9               	movwf	??_main
  4660  03FA  0839               	movf	??_main,w
  4661  03FB  00F6               	movwf	Lcd_Set_Cursor@b
  4662  03FC  3001               	movlw	1
  4663  03FD  120A  158A  2447  120A  118A  	fcall	_Lcd_Set_Cursor
  4664  0402                     l3252:
  4665                           
  4666                           ;Mainprj2.c: 260:     Lcd_Write_String(" ");
  4667  0402  3056               	movlw	(low (((STR_11+2)-__stringbase)| (0+32768)))& (0+255)
  4668  0403  120A  158A  23BE  120A  118A  	fcall	_Lcd_Write_String
  4669                           
  4670                           ;Mainprj2.c: 261:     }
  4671  0408  2C19               	goto	l3258
  4672  0409                     l3254:
  4673                           
  4674                           ;Mainprj2.c: 263:     {;Mainprj2.c: 264:     Lcd_Set_Cursor(1,16);
  4675  0409  3010               	movlw	16
  4676  040A  00B9               	movwf	??_main
  4677  040B  0839               	movf	??_main,w
  4678  040C  00F6               	movwf	Lcd_Set_Cursor@b
  4679  040D  3001               	movlw	1
  4680  040E  120A  158A  2447  120A  118A  	fcall	_Lcd_Set_Cursor
  4681  0413                     l3256:
  4682                           
  4683                           ;Mainprj2.c: 265:     Lcd_Write_String("x");
  4684  0413  3069               	movlw	(low ((STR_24-__stringbase)| (0+32768)))& (0+255)
  4685  0414  120A  158A  23BE  120A  118A  	fcall	_Lcd_Write_String
  4686  0419                     l3258:
  4687                           
  4688                           ;Mainprj2.c: 267:     if (phai>0 && tinhnang==1) {
  4689  0419  1283               	bcf	3,5	;RP0=0, select bank0
  4690  041A  1303               	bcf	3,6	;RP1=0, select bank0
  4691  041B  085D               	movf	main@phai+1,w
  4692  041C  3A80               	xorlw	128
  4693  041D  00FF               	movwf	btemp+1
  4694  041E  3080               	movlw	128
  4695  041F  027F               	subwf	btemp+1,w
  4696  0420  1D03               	skipz
  4697  0421  2C24               	goto	u4125
  4698  0422  3001               	movlw	1
  4699  0423  025C               	subwf	main@phai,w
  4700  0424                     u4125:
  4701  0424  1C03               	skipc
  4702  0425  2C27               	goto	u4121
  4703  0426  2C28               	goto	u4120
  4704  0427                     u4121:
  4705  0427  2C53               	goto	l3272
  4706  0428                     u4120:
  4707  0428                     l3260:
  4708  0428  1283               	bcf	3,5	;RP0=0, select bank0
  4709  0429  1303               	bcf	3,6	;RP1=0, select bank0
  4710  042A  035E               	decf	main@tinhnang,w
  4711  042B  045F               	iorwf	main@tinhnang+1,w
  4712  042C  1D03               	btfss	3,2
  4713  042D  2C2F               	goto	u4131
  4714  042E  2C30               	goto	u4130
  4715  042F                     u4131:
  4716  042F  2C53               	goto	l3272
  4717  0430                     u4130:
  4718  0430                     l3262:
  4719                           
  4720                           ;Mainprj2.c: 268:         trangthai=1;
  4721  0430  3001               	movlw	1
  4722  0431  00DA               	movwf	main@trangthai
  4723  0432  3000               	movlw	0
  4724  0433  00DB               	movwf	main@trangthai+1
  4725  0434                     l3264:
  4726                           
  4727                           ;Mainprj2.c: 269:         mocua=0;
  4728  0434  01C8               	clrf	main@mocua
  4729  0435  01C9               	clrf	main@mocua+1
  4730  0436                     l3266:
  4731                           
  4732                           ;Mainprj2.c: 270:         dongcua++;
  4733  0436  3001               	movlw	1
  4734  0437  07C6               	addwf	main@dongcua,f
  4735  0438  1803               	skipnc
  4736  0439  0AC7               	incf	main@dongcua+1,f
  4737  043A  3000               	movlw	0
  4738  043B  07C7               	addwf	main@dongcua+1,f
  4739                           
  4740                           ;Mainprj2.c: 271:         phai=0;
  4741  043C  01DC               	clrf	main@phai
  4742  043D  01DD               	clrf	main@phai+1
  4743  043E                     l3268:
  4744                           
  4745                           ;Mainprj2.c: 272:         UART_Write('d');
  4746  043E  3064               	movlw	100
  4747  043F  120A  118A  27F1  120A  118A  	fcall	_UART_Write
  4748  0444                     l3270:
  4749                           
  4750                           ;Mainprj2.c: 273:         _delay((unsigned long)((1000)*(20000000/4000.0)));
  4751  0444  301A               	movlw	26
  4752  0445  1283               	bcf	3,5	;RP0=0, select bank0
  4753  0446  1303               	bcf	3,6	;RP1=0, select bank0
  4754  0447  00BB               	movwf	??_main+2
  4755  0448  305E               	movlw	94
  4756  0449  00BA               	movwf	??_main+1
  4757  044A  306D               	movlw	109
  4758  044B  00B9               	movwf	??_main
  4759  044C                     u4627:
  4760  044C  0BB9               	decfsz	??_main,f
  4761  044D  2C4C               	goto	u4627
  4762  044E  0BBA               	decfsz	??_main+1,f
  4763  044F  2C4C               	goto	u4627
  4764  0450  0BBB               	decfsz	??_main+2,f
  4765  0451  2C4C               	goto	u4627
  4766  0452  2C53               	nop2
  4767  0453                     l3272:
  4768                           
  4769                           ;Mainprj2.c: 275:     if (phai>0 && tinhnang==2) {
  4770  0453  1283               	bcf	3,5	;RP0=0, select bank0
  4771  0454  1303               	bcf	3,6	;RP1=0, select bank0
  4772  0455  085D               	movf	main@phai+1,w
  4773  0456  3A80               	xorlw	128
  4774  0457  00FF               	movwf	btemp+1
  4775  0458  3080               	movlw	128
  4776  0459  027F               	subwf	btemp+1,w
  4777  045A  1D03               	skipz
  4778  045B  2C5E               	goto	u4145
  4779  045C  3001               	movlw	1
  4780  045D  025C               	subwf	main@phai,w
  4781  045E                     u4145:
  4782  045E  1C03               	skipc
  4783  045F  2C61               	goto	u4141
  4784  0460  2C62               	goto	u4140
  4785  0461                     u4141:
  4786  0461  2C9F               	goto	l3286
  4787  0462                     u4140:
  4788  0462                     l3274:
  4789  0462  3002               	movlw	2
  4790  0463  1283               	bcf	3,5	;RP0=0, select bank0
  4791  0464  1303               	bcf	3,6	;RP1=0, select bank0
  4792  0465  065E               	xorwf	main@tinhnang,w
  4793  0466  045F               	iorwf	main@tinhnang+1,w
  4794  0467  1D03               	btfss	3,2
  4795  0468  2C6A               	goto	u4151
  4796  0469  2C6B               	goto	u4150
  4797  046A                     u4151:
  4798  046A  2C9F               	goto	l3286
  4799  046B                     u4150:
  4800  046B                     l3276:
  4801                           
  4802                           ;Mainprj2.c: 276:         _delay((unsigned long)((1000)*(20000000/4000.0)));
  4803  046B  301A               	movlw	26
  4804  046C  1283               	bcf	3,5	;RP0=0, select bank0
  4805  046D  1303               	bcf	3,6	;RP1=0, select bank0
  4806  046E  00BB               	movwf	??_main+2
  4807  046F  305E               	movlw	94
  4808  0470  00BA               	movwf	??_main+1
  4809  0471  306D               	movlw	109
  4810  0472  00B9               	movwf	??_main
  4811  0473                     u4637:
  4812  0473  0BB9               	decfsz	??_main,f
  4813  0474  2C73               	goto	u4637
  4814  0475  0BBA               	decfsz	??_main+1,f
  4815  0476  2C73               	goto	u4637
  4816  0477  0BBB               	decfsz	??_main+2,f
  4817  0478  2C73               	goto	u4637
  4818  0479  2C7A               	nop2
  4819                           
  4820                           ;Mainprj2.c: 277:         trangthai=1;
  4821  047A  3001               	movlw	1
  4822  047B  1283               	bcf	3,5	;RP0=0, select bank0
  4823  047C  1303               	bcf	3,6	;RP1=0, select bank0
  4824  047D  00DA               	movwf	main@trangthai
  4825  047E  3000               	movlw	0
  4826  047F  00DB               	movwf	main@trangthai+1
  4827  0480                     l3278:
  4828                           
  4829                           ;Mainprj2.c: 278:         dongcua=0;
  4830  0480  01C6               	clrf	main@dongcua
  4831  0481  01C7               	clrf	main@dongcua+1
  4832  0482                     l3280:
  4833                           
  4834                           ;Mainprj2.c: 279:         mocua++;
  4835  0482  3001               	movlw	1
  4836  0483  07C8               	addwf	main@mocua,f
  4837  0484  1803               	skipnc
  4838  0485  0AC9               	incf	main@mocua+1,f
  4839  0486  3000               	movlw	0
  4840  0487  07C9               	addwf	main@mocua+1,f
  4841                           
  4842                           ;Mainprj2.c: 280:         phai=0;
  4843  0488  01DC               	clrf	main@phai
  4844  0489  01DD               	clrf	main@phai+1
  4845  048A                     l3282:
  4846                           
  4847                           ;Mainprj2.c: 281:         UART_Write('m');
  4848  048A  306D               	movlw	109
  4849  048B  120A  118A  27F1  120A  118A  	fcall	_UART_Write
  4850  0490                     l3284:
  4851                           
  4852                           ;Mainprj2.c: 282:          _delay((unsigned long)((1000)*(20000000/4000.0)));
  4853  0490  301A               	movlw	26
  4854  0491  1283               	bcf	3,5	;RP0=0, select bank0
  4855  0492  1303               	bcf	3,6	;RP1=0, select bank0
  4856  0493  00BB               	movwf	??_main+2
  4857  0494  305E               	movlw	94
  4858  0495  00BA               	movwf	??_main+1
  4859  0496  306D               	movlw	109
  4860  0497  00B9               	movwf	??_main
  4861  0498                     u4647:
  4862  0498  0BB9               	decfsz	??_main,f
  4863  0499  2C98               	goto	u4647
  4864  049A  0BBA               	decfsz	??_main+1,f
  4865  049B  2C98               	goto	u4647
  4866  049C  0BBB               	decfsz	??_main+2,f
  4867  049D  2C98               	goto	u4647
  4868  049E  2C9F               	nop2
  4869  049F                     l3286:
  4870                           
  4871                           ;Mainprj2.c: 284:     if (phai >0 && tinhnang == 3 && trangthaim1==0) {trangthaim1=1;pha
      +                          i=0;_delay((unsigned long)((1000)*(20000000/4000.0))); UART_Write('x');
  4872  049F  1283               	bcf	3,5	;RP0=0, select bank0
  4873  04A0  1303               	bcf	3,6	;RP1=0, select bank0
  4874  04A1  085D               	movf	main@phai+1,w
  4875  04A2  3A80               	xorlw	128
  4876  04A3  00FF               	movwf	btemp+1
  4877  04A4  3080               	movlw	128
  4878  04A5  027F               	subwf	btemp+1,w
  4879  04A6  1D03               	skipz
  4880  04A7  2CAA               	goto	u4165
  4881  04A8  3001               	movlw	1
  4882  04A9  025C               	subwf	main@phai,w
  4883  04AA                     u4165:
  4884  04AA  1C03               	skipc
  4885  04AB  2CAD               	goto	u4161
  4886  04AC  2CAE               	goto	u4160
  4887  04AD                     u4161:
  4888  04AD  2CE6               	goto	l3302
  4889  04AE                     u4160:
  4890  04AE                     l3288:
  4891  04AE  3003               	movlw	3
  4892  04AF  1283               	bcf	3,5	;RP0=0, select bank0
  4893  04B0  1303               	bcf	3,6	;RP1=0, select bank0
  4894  04B1  065E               	xorwf	main@tinhnang,w
  4895  04B2  045F               	iorwf	main@tinhnang+1,w
  4896  04B3  1D03               	btfss	3,2
  4897  04B4  2CB6               	goto	u4171
  4898  04B5  2CB7               	goto	u4170
  4899  04B6                     u4171:
  4900  04B6  2CE6               	goto	l3302
  4901  04B7                     u4170:
  4902  04B7                     l3290:
  4903  04B7  0850               	movf	main@trangthaim1,w
  4904  04B8  0451               	iorwf	main@trangthaim1+1,w
  4905  04B9  1D03               	btfss	3,2
  4906  04BA  2CBC               	goto	u4181
  4907  04BB  2CBD               	goto	u4180
  4908  04BC                     u4181:
  4909  04BC  2CE6               	goto	l3302
  4910  04BD                     u4180:
  4911  04BD                     l3292:
  4912  04BD  3001               	movlw	1
  4913  04BE  00D0               	movwf	main@trangthaim1
  4914  04BF  3000               	movlw	0
  4915  04C0  00D1               	movwf	main@trangthaim1+1
  4916  04C1                     l3294:
  4917  04C1  01DC               	clrf	main@phai
  4918  04C2  01DD               	clrf	main@phai+1
  4919  04C3                     l3296:
  4920  04C3  301A               	movlw	26
  4921  04C4  1283               	bcf	3,5	;RP0=0, select bank0
  4922  04C5  1303               	bcf	3,6	;RP1=0, select bank0
  4923  04C6  00BB               	movwf	??_main+2
  4924  04C7  305E               	movlw	94
  4925  04C8  00BA               	movwf	??_main+1
  4926  04C9  306D               	movlw	109
  4927  04CA  00B9               	movwf	??_main
  4928  04CB                     u4657:
  4929  04CB  0BB9               	decfsz	??_main,f
  4930  04CC  2CCB               	goto	u4657
  4931  04CD  0BBA               	decfsz	??_main+1,f
  4932  04CE  2CCB               	goto	u4657
  4933  04CF  0BBB               	decfsz	??_main+2,f
  4934  04D0  2CCB               	goto	u4657
  4935  04D1  2CD2               	nop2
  4936  04D2                     l3298:
  4937  04D2  3078               	movlw	120
  4938  04D3  120A  118A  27F1  120A  118A  	fcall	_UART_Write
  4939  04D8                     l3300:
  4940                           
  4941                           ;Mainprj2.c: 285:          _delay((unsigned long)((100)*(20000000/4000.0)));}
  4942  04D8  3003               	movlw	3
  4943  04D9  1283               	bcf	3,5	;RP0=0, select bank0
  4944  04DA  1303               	bcf	3,6	;RP1=0, select bank0
  4945  04DB  00BB               	movwf	??_main+2
  4946  04DC  308A               	movlw	138
  4947  04DD  00BA               	movwf	??_main+1
  4948  04DE  3055               	movlw	85
  4949  04DF  00B9               	movwf	??_main
  4950  04E0                     u4667:
  4951  04E0  0BB9               	decfsz	??_main,f
  4952  04E1  2CE0               	goto	u4667
  4953  04E2  0BBA               	decfsz	??_main+1,f
  4954  04E3  2CE0               	goto	u4667
  4955  04E4  0BBB               	decfsz	??_main+2,f
  4956  04E5  2CE0               	goto	u4667
  4957  04E6                     l3302:
  4958                           
  4959                           ;Mainprj2.c: 286:     if (phai >0 && tinhnang == 3 && trangthaim1==1) {trangthaim1=0;pha
      +                          i=0;_delay((unsigned long)((1000)*(20000000/4000.0)));UART_Write('z');
  4960  04E6  1283               	bcf	3,5	;RP0=0, select bank0
  4961  04E7  1303               	bcf	3,6	;RP1=0, select bank0
  4962  04E8  085D               	movf	main@phai+1,w
  4963  04E9  3A80               	xorlw	128
  4964  04EA  00FF               	movwf	btemp+1
  4965  04EB  3080               	movlw	128
  4966  04EC  027F               	subwf	btemp+1,w
  4967  04ED  1D03               	skipz
  4968  04EE  2CF1               	goto	u4195
  4969  04EF  3001               	movlw	1
  4970  04F0  025C               	subwf	main@phai,w
  4971  04F1                     u4195:
  4972  04F1  1C03               	skipc
  4973  04F2  2CF4               	goto	u4191
  4974  04F3  2CF5               	goto	u4190
  4975  04F4                     u4191:
  4976  04F4  2D2B               	goto	l3316
  4977  04F5                     u4190:
  4978  04F5                     l3304:
  4979  04F5  3003               	movlw	3
  4980  04F6  1283               	bcf	3,5	;RP0=0, select bank0
  4981  04F7  1303               	bcf	3,6	;RP1=0, select bank0
  4982  04F8  065E               	xorwf	main@tinhnang,w
  4983  04F9  045F               	iorwf	main@tinhnang+1,w
  4984  04FA  1D03               	btfss	3,2
  4985  04FB  2CFD               	goto	u4201
  4986  04FC  2CFE               	goto	u4200
  4987  04FD                     u4201:
  4988  04FD  2D2B               	goto	l3316
  4989  04FE                     u4200:
  4990  04FE                     l3306:
  4991  04FE  0350               	decf	main@trangthaim1,w
  4992  04FF  0451               	iorwf	main@trangthaim1+1,w
  4993  0500  1D03               	btfss	3,2
  4994  0501  2D03               	goto	u4211
  4995  0502  2D04               	goto	u4210
  4996  0503                     u4211:
  4997  0503  2D2B               	goto	l3316
  4998  0504                     u4210:
  4999  0504                     l3308:
  5000  0504  01D0               	clrf	main@trangthaim1
  5001  0505  01D1               	clrf	main@trangthaim1+1
  5002  0506  01DC               	clrf	main@phai
  5003  0507  01DD               	clrf	main@phai+1
  5004  0508                     l3310:
  5005  0508  301A               	movlw	26
  5006  0509  1283               	bcf	3,5	;RP0=0, select bank0
  5007  050A  1303               	bcf	3,6	;RP1=0, select bank0
  5008  050B  00BB               	movwf	??_main+2
  5009  050C  305E               	movlw	94
  5010  050D  00BA               	movwf	??_main+1
  5011  050E  306D               	movlw	109
  5012  050F  00B9               	movwf	??_main
  5013  0510                     u4677:
  5014  0510  0BB9               	decfsz	??_main,f
  5015  0511  2D10               	goto	u4677
  5016  0512  0BBA               	decfsz	??_main+1,f
  5017  0513  2D10               	goto	u4677
  5018  0514  0BBB               	decfsz	??_main+2,f
  5019  0515  2D10               	goto	u4677
  5020  0516  2D17               	nop2
  5021  0517                     l3312:
  5022  0517  307A               	movlw	122
  5023  0518  120A  118A  27F1  120A  118A  	fcall	_UART_Write
  5024  051D                     l3314:
  5025                           
  5026                           ;Mainprj2.c: 287:          _delay((unsigned long)((100)*(20000000/4000.0)));}
  5027  051D  3003               	movlw	3
  5028  051E  1283               	bcf	3,5	;RP0=0, select bank0
  5029  051F  1303               	bcf	3,6	;RP1=0, select bank0
  5030  0520  00BB               	movwf	??_main+2
  5031  0521  308A               	movlw	138
  5032  0522  00BA               	movwf	??_main+1
  5033  0523  3055               	movlw	85
  5034  0524  00B9               	movwf	??_main
  5035  0525                     u4687:
  5036  0525  0BB9               	decfsz	??_main,f
  5037  0526  2D25               	goto	u4687
  5038  0527  0BBA               	decfsz	??_main+1,f
  5039  0528  2D25               	goto	u4687
  5040  0529  0BBB               	decfsz	??_main+2,f
  5041  052A  2D25               	goto	u4687
  5042  052B                     l3316:
  5043                           
  5044                           ;Mainprj2.c: 288:         if (phai >0 && tinhnang == 4 && trangthaim2==0) {trangthaim2=1
      +                          ;phai=0;_delay((unsigned long)((1000)*(20000000/4000.0)));UART_Write('c');
  5045  052B  1283               	bcf	3,5	;RP0=0, select bank0
  5046  052C  1303               	bcf	3,6	;RP1=0, select bank0
  5047  052D  085D               	movf	main@phai+1,w
  5048  052E  3A80               	xorlw	128
  5049  052F  00FF               	movwf	btemp+1
  5050  0530  3080               	movlw	128
  5051  0531  027F               	subwf	btemp+1,w
  5052  0532  1D03               	skipz
  5053  0533  2D36               	goto	u4225
  5054  0534  3001               	movlw	1
  5055  0535  025C               	subwf	main@phai,w
  5056  0536                     u4225:
  5057  0536  1C03               	skipc
  5058  0537  2D39               	goto	u4221
  5059  0538  2D3A               	goto	u4220
  5060  0539                     u4221:
  5061  0539  2D72               	goto	l3332
  5062  053A                     u4220:
  5063  053A                     l3318:
  5064  053A  3004               	movlw	4
  5065  053B  1283               	bcf	3,5	;RP0=0, select bank0
  5066  053C  1303               	bcf	3,6	;RP1=0, select bank0
  5067  053D  065E               	xorwf	main@tinhnang,w
  5068  053E  045F               	iorwf	main@tinhnang+1,w
  5069  053F  1D03               	btfss	3,2
  5070  0540  2D42               	goto	u4231
  5071  0541  2D43               	goto	u4230
  5072  0542                     u4231:
  5073  0542  2D72               	goto	l3332
  5074  0543                     u4230:
  5075  0543                     l3320:
  5076  0543  0852               	movf	main@trangthaim2,w
  5077  0544  0453               	iorwf	main@trangthaim2+1,w
  5078  0545  1D03               	btfss	3,2
  5079  0546  2D48               	goto	u4241
  5080  0547  2D49               	goto	u4240
  5081  0548                     u4241:
  5082  0548  2D72               	goto	l3332
  5083  0549                     u4240:
  5084  0549                     l3322:
  5085  0549  3001               	movlw	1
  5086  054A  00D2               	movwf	main@trangthaim2
  5087  054B  3000               	movlw	0
  5088  054C  00D3               	movwf	main@trangthaim2+1
  5089  054D                     l3324:
  5090  054D  01DC               	clrf	main@phai
  5091  054E  01DD               	clrf	main@phai+1
  5092  054F                     l3326:
  5093  054F  301A               	movlw	26
  5094  0550  1283               	bcf	3,5	;RP0=0, select bank0
  5095  0551  1303               	bcf	3,6	;RP1=0, select bank0
  5096  0552  00BB               	movwf	??_main+2
  5097  0553  305E               	movlw	94
  5098  0554  00BA               	movwf	??_main+1
  5099  0555  306D               	movlw	109
  5100  0556  00B9               	movwf	??_main
  5101  0557                     u4697:
  5102  0557  0BB9               	decfsz	??_main,f
  5103  0558  2D57               	goto	u4697
  5104  0559  0BBA               	decfsz	??_main+1,f
  5105  055A  2D57               	goto	u4697
  5106  055B  0BBB               	decfsz	??_main+2,f
  5107  055C  2D57               	goto	u4697
  5108  055D  2D5E               	nop2
  5109  055E                     l3328:
  5110  055E  3063               	movlw	99
  5111  055F  120A  118A  27F1  120A  118A  	fcall	_UART_Write
  5112  0564                     l3330:
  5113                           
  5114                           ;Mainprj2.c: 289:          _delay((unsigned long)((100)*(20000000/4000.0)));}
  5115  0564  3003               	movlw	3
  5116  0565  1283               	bcf	3,5	;RP0=0, select bank0
  5117  0566  1303               	bcf	3,6	;RP1=0, select bank0
  5118  0567  00BB               	movwf	??_main+2
  5119  0568  308A               	movlw	138
  5120  0569  00BA               	movwf	??_main+1
  5121  056A  3055               	movlw	85
  5122  056B  00B9               	movwf	??_main
  5123  056C                     u4707:
  5124  056C  0BB9               	decfsz	??_main,f
  5125  056D  2D6C               	goto	u4707
  5126  056E  0BBA               	decfsz	??_main+1,f
  5127  056F  2D6C               	goto	u4707
  5128  0570  0BBB               	decfsz	??_main+2,f
  5129  0571  2D6C               	goto	u4707
  5130  0572                     l3332:
  5131                           
  5132                           ;Mainprj2.c: 290:     if (phai >0 && tinhnang == 4 && trangthaim2==1) {trangthaim2=0;pha
      +                          i=0;_delay((unsigned long)((1000)*(20000000/4000.0)));UART_Write('v');
  5133  0572  1283               	bcf	3,5	;RP0=0, select bank0
  5134  0573  1303               	bcf	3,6	;RP1=0, select bank0
  5135  0574  085D               	movf	main@phai+1,w
  5136  0575  3A80               	xorlw	128
  5137  0576  00FF               	movwf	btemp+1
  5138  0577  3080               	movlw	128
  5139  0578  027F               	subwf	btemp+1,w
  5140  0579  1D03               	skipz
  5141  057A  2D7D               	goto	u4255
  5142  057B  3001               	movlw	1
  5143  057C  025C               	subwf	main@phai,w
  5144  057D                     u4255:
  5145  057D  1C03               	skipc
  5146  057E  2D80               	goto	u4251
  5147  057F  2D81               	goto	u4250
  5148  0580                     u4251:
  5149  0580  2DB7               	goto	l3346
  5150  0581                     u4250:
  5151  0581                     l3334:
  5152  0581  3004               	movlw	4
  5153  0582  1283               	bcf	3,5	;RP0=0, select bank0
  5154  0583  1303               	bcf	3,6	;RP1=0, select bank0
  5155  0584  065E               	xorwf	main@tinhnang,w
  5156  0585  045F               	iorwf	main@tinhnang+1,w
  5157  0586  1D03               	btfss	3,2
  5158  0587  2D89               	goto	u4261
  5159  0588  2D8A               	goto	u4260
  5160  0589                     u4261:
  5161  0589  2DB7               	goto	l3346
  5162  058A                     u4260:
  5163  058A                     l3336:
  5164  058A  0352               	decf	main@trangthaim2,w
  5165  058B  0453               	iorwf	main@trangthaim2+1,w
  5166  058C  1D03               	btfss	3,2
  5167  058D  2D8F               	goto	u4271
  5168  058E  2D90               	goto	u4270
  5169  058F                     u4271:
  5170  058F  2DB7               	goto	l3346
  5171  0590                     u4270:
  5172  0590                     l3338:
  5173  0590  01D2               	clrf	main@trangthaim2
  5174  0591  01D3               	clrf	main@trangthaim2+1
  5175  0592  01DC               	clrf	main@phai
  5176  0593  01DD               	clrf	main@phai+1
  5177  0594                     l3340:
  5178  0594  301A               	movlw	26
  5179  0595  1283               	bcf	3,5	;RP0=0, select bank0
  5180  0596  1303               	bcf	3,6	;RP1=0, select bank0
  5181  0597  00BB               	movwf	??_main+2
  5182  0598  305E               	movlw	94
  5183  0599  00BA               	movwf	??_main+1
  5184  059A  306D               	movlw	109
  5185  059B  00B9               	movwf	??_main
  5186  059C                     u4717:
  5187  059C  0BB9               	decfsz	??_main,f
  5188  059D  2D9C               	goto	u4717
  5189  059E  0BBA               	decfsz	??_main+1,f
  5190  059F  2D9C               	goto	u4717
  5191  05A0  0BBB               	decfsz	??_main+2,f
  5192  05A1  2D9C               	goto	u4717
  5193  05A2  2DA3               	nop2
  5194  05A3                     l3342:
  5195  05A3  3076               	movlw	118
  5196  05A4  120A  118A  27F1  120A  118A  	fcall	_UART_Write
  5197  05A9                     l3344:
  5198                           
  5199                           ;Mainprj2.c: 291:          _delay((unsigned long)((100)*(20000000/4000.0)));}
  5200  05A9  3003               	movlw	3
  5201  05AA  1283               	bcf	3,5	;RP0=0, select bank0
  5202  05AB  1303               	bcf	3,6	;RP1=0, select bank0
  5203  05AC  00BB               	movwf	??_main+2
  5204  05AD  308A               	movlw	138
  5205  05AE  00BA               	movwf	??_main+1
  5206  05AF  3055               	movlw	85
  5207  05B0  00B9               	movwf	??_main
  5208  05B1                     u4727:
  5209  05B1  0BB9               	decfsz	??_main,f
  5210  05B2  2DB1               	goto	u4727
  5211  05B3  0BBA               	decfsz	??_main+1,f
  5212  05B4  2DB1               	goto	u4727
  5213  05B5  0BBB               	decfsz	??_main+2,f
  5214  05B6  2DB1               	goto	u4727
  5215  05B7                     l3346:
  5216                           
  5217                           ;Mainprj2.c: 292:         if (phai >0 && tinhnang == 5 && trangthaim3==0) {trangthaim3=1
      +                          ;phai=0;_delay((unsigned long)((1000)*(20000000/4000.0)));UART_Write('b');
  5218  05B7  1283               	bcf	3,5	;RP0=0, select bank0
  5219  05B8  1303               	bcf	3,6	;RP1=0, select bank0
  5220  05B9  085D               	movf	main@phai+1,w
  5221  05BA  3A80               	xorlw	128
  5222  05BB  00FF               	movwf	btemp+1
  5223  05BC  3080               	movlw	128
  5224  05BD  027F               	subwf	btemp+1,w
  5225  05BE  1D03               	skipz
  5226  05BF  2DC2               	goto	u4285
  5227  05C0  3001               	movlw	1
  5228  05C1  025C               	subwf	main@phai,w
  5229  05C2                     u4285:
  5230  05C2  1C03               	skipc
  5231  05C3  2DC5               	goto	u4281
  5232  05C4  2DC6               	goto	u4280
  5233  05C5                     u4281:
  5234  05C5  2DFE               	goto	l3362
  5235  05C6                     u4280:
  5236  05C6                     l3348:
  5237  05C6  3005               	movlw	5
  5238  05C7  1283               	bcf	3,5	;RP0=0, select bank0
  5239  05C8  1303               	bcf	3,6	;RP1=0, select bank0
  5240  05C9  065E               	xorwf	main@tinhnang,w
  5241  05CA  045F               	iorwf	main@tinhnang+1,w
  5242  05CB  1D03               	btfss	3,2
  5243  05CC  2DCE               	goto	u4291
  5244  05CD  2DCF               	goto	u4290
  5245  05CE                     u4291:
  5246  05CE  2DFE               	goto	l3362
  5247  05CF                     u4290:
  5248  05CF                     l3350:
  5249  05CF  0854               	movf	main@trangthaim3,w
  5250  05D0  0455               	iorwf	main@trangthaim3+1,w
  5251  05D1  1D03               	btfss	3,2
  5252  05D2  2DD4               	goto	u4301
  5253  05D3  2DD5               	goto	u4300
  5254  05D4                     u4301:
  5255  05D4  2DFE               	goto	l3362
  5256  05D5                     u4300:
  5257  05D5                     l3352:
  5258  05D5  3001               	movlw	1
  5259  05D6  00D4               	movwf	main@trangthaim3
  5260  05D7  3000               	movlw	0
  5261  05D8  00D5               	movwf	main@trangthaim3+1
  5262  05D9                     l3354:
  5263  05D9  01DC               	clrf	main@phai
  5264  05DA  01DD               	clrf	main@phai+1
  5265  05DB                     l3356:
  5266  05DB  301A               	movlw	26
  5267  05DC  1283               	bcf	3,5	;RP0=0, select bank0
  5268  05DD  1303               	bcf	3,6	;RP1=0, select bank0
  5269  05DE  00BB               	movwf	??_main+2
  5270  05DF  305E               	movlw	94
  5271  05E0  00BA               	movwf	??_main+1
  5272  05E1  306D               	movlw	109
  5273  05E2  00B9               	movwf	??_main
  5274  05E3                     u4737:
  5275  05E3  0BB9               	decfsz	??_main,f
  5276  05E4  2DE3               	goto	u4737
  5277  05E5  0BBA               	decfsz	??_main+1,f
  5278  05E6  2DE3               	goto	u4737
  5279  05E7  0BBB               	decfsz	??_main+2,f
  5280  05E8  2DE3               	goto	u4737
  5281  05E9  2DEA               	nop2
  5282  05EA                     l3358:
  5283  05EA  3062               	movlw	98
  5284  05EB  120A  118A  27F1  120A  118A  	fcall	_UART_Write
  5285  05F0                     l3360:
  5286                           
  5287                           ;Mainprj2.c: 293:          _delay((unsigned long)((100)*(20000000/4000.0)));}
  5288  05F0  3003               	movlw	3
  5289  05F1  1283               	bcf	3,5	;RP0=0, select bank0
  5290  05F2  1303               	bcf	3,6	;RP1=0, select bank0
  5291  05F3  00BB               	movwf	??_main+2
  5292  05F4  308A               	movlw	138
  5293  05F5  00BA               	movwf	??_main+1
  5294  05F6  3055               	movlw	85
  5295  05F7  00B9               	movwf	??_main
  5296  05F8                     u4747:
  5297  05F8  0BB9               	decfsz	??_main,f
  5298  05F9  2DF8               	goto	u4747
  5299  05FA  0BBA               	decfsz	??_main+1,f
  5300  05FB  2DF8               	goto	u4747
  5301  05FC  0BBB               	decfsz	??_main+2,f
  5302  05FD  2DF8               	goto	u4747
  5303  05FE                     l3362:
  5304                           
  5305                           ;Mainprj2.c: 294:     if (phai >0 && tinhnang == 5 && trangthaim3==1) {trangthaim3=0;pha
      +                          i=0;_delay((unsigned long)((1000)*(20000000/4000.0)));UART_Write('n');
  5306  05FE  1283               	bcf	3,5	;RP0=0, select bank0
  5307  05FF  1303               	bcf	3,6	;RP1=0, select bank0
  5308  0600  085D               	movf	main@phai+1,w
  5309  0601  3A80               	xorlw	128
  5310  0602  00FF               	movwf	btemp+1
  5311  0603  3080               	movlw	128
  5312  0604  027F               	subwf	btemp+1,w
  5313  0605  1D03               	skipz
  5314  0606  2E09               	goto	u4315
  5315  0607  3001               	movlw	1
  5316  0608  025C               	subwf	main@phai,w
  5317  0609                     u4315:
  5318  0609  1C03               	skipc
  5319  060A  2E0C               	goto	u4311
  5320  060B  2E0D               	goto	u4310
  5321  060C                     u4311:
  5322  060C  2E43               	goto	l3376
  5323  060D                     u4310:
  5324  060D                     l3364:
  5325  060D  3005               	movlw	5
  5326  060E  1283               	bcf	3,5	;RP0=0, select bank0
  5327  060F  1303               	bcf	3,6	;RP1=0, select bank0
  5328  0610  065E               	xorwf	main@tinhnang,w
  5329  0611  045F               	iorwf	main@tinhnang+1,w
  5330  0612  1D03               	btfss	3,2
  5331  0613  2E15               	goto	u4321
  5332  0614  2E16               	goto	u4320
  5333  0615                     u4321:
  5334  0615  2E43               	goto	l3376
  5335  0616                     u4320:
  5336  0616                     l3366:
  5337  0616  0354               	decf	main@trangthaim3,w
  5338  0617  0455               	iorwf	main@trangthaim3+1,w
  5339  0618  1D03               	btfss	3,2
  5340  0619  2E1B               	goto	u4331
  5341  061A  2E1C               	goto	u4330
  5342  061B                     u4331:
  5343  061B  2E43               	goto	l3376
  5344  061C                     u4330:
  5345  061C                     l3368:
  5346  061C  01D4               	clrf	main@trangthaim3
  5347  061D  01D5               	clrf	main@trangthaim3+1
  5348  061E  01DC               	clrf	main@phai
  5349  061F  01DD               	clrf	main@phai+1
  5350  0620                     l3370:
  5351  0620  301A               	movlw	26
  5352  0621  1283               	bcf	3,5	;RP0=0, select bank0
  5353  0622  1303               	bcf	3,6	;RP1=0, select bank0
  5354  0623  00BB               	movwf	??_main+2
  5355  0624  305E               	movlw	94
  5356  0625  00BA               	movwf	??_main+1
  5357  0626  306D               	movlw	109
  5358  0627  00B9               	movwf	??_main
  5359  0628                     u4757:
  5360  0628  0BB9               	decfsz	??_main,f
  5361  0629  2E28               	goto	u4757
  5362  062A  0BBA               	decfsz	??_main+1,f
  5363  062B  2E28               	goto	u4757
  5364  062C  0BBB               	decfsz	??_main+2,f
  5365  062D  2E28               	goto	u4757
  5366  062E  2E2F               	nop2
  5367  062F                     l3372:
  5368  062F  306E               	movlw	110
  5369  0630  120A  118A  27F1  120A  118A  	fcall	_UART_Write
  5370  0635                     l3374:
  5371                           
  5372                           ;Mainprj2.c: 295:          _delay((unsigned long)((100)*(20000000/4000.0)));}
  5373  0635  3003               	movlw	3
  5374  0636  1283               	bcf	3,5	;RP0=0, select bank0
  5375  0637  1303               	bcf	3,6	;RP1=0, select bank0
  5376  0638  00BB               	movwf	??_main+2
  5377  0639  308A               	movlw	138
  5378  063A  00BA               	movwf	??_main+1
  5379  063B  3055               	movlw	85
  5380  063C  00B9               	movwf	??_main
  5381  063D                     u4767:
  5382  063D  0BB9               	decfsz	??_main,f
  5383  063E  2E3D               	goto	u4767
  5384  063F  0BBA               	decfsz	??_main+1,f
  5385  0640  2E3D               	goto	u4767
  5386  0641  0BBB               	decfsz	??_main+2,f
  5387  0642  2E3D               	goto	u4767
  5388  0643                     l3376:
  5389                           
  5390                           ;Mainprj2.c: 296:     if (phai>0 && tinhnang==6) {
  5391  0643  1283               	bcf	3,5	;RP0=0, select bank0
  5392  0644  1303               	bcf	3,6	;RP1=0, select bank0
  5393  0645  085D               	movf	main@phai+1,w
  5394  0646  3A80               	xorlw	128
  5395  0647  00FF               	movwf	btemp+1
  5396  0648  3080               	movlw	128
  5397  0649  027F               	subwf	btemp+1,w
  5398  064A  1D03               	skipz
  5399  064B  2E4E               	goto	u4345
  5400  064C  3001               	movlw	1
  5401  064D  025C               	subwf	main@phai,w
  5402  064E                     u4345:
  5403  064E  1C03               	skipc
  5404  064F  2E51               	goto	u4341
  5405  0650  2E52               	goto	u4340
  5406  0651                     u4341:
  5407  0651  2E7B               	goto	l3390
  5408  0652                     u4340:
  5409  0652                     l3378:
  5410  0652  3006               	movlw	6
  5411  0653  1283               	bcf	3,5	;RP0=0, select bank0
  5412  0654  1303               	bcf	3,6	;RP1=0, select bank0
  5413  0655  065E               	xorwf	main@tinhnang,w
  5414  0656  045F               	iorwf	main@tinhnang+1,w
  5415  0657  1D03               	btfss	3,2
  5416  0658  2E5A               	goto	u4351
  5417  0659  2E5B               	goto	u4350
  5418  065A                     u4351:
  5419  065A  2E7B               	goto	l3390
  5420  065B                     u4350:
  5421  065B                     l3380:
  5422                           
  5423                           ;Mainprj2.c: 297:         trangthaim1=0;
  5424  065B  01D0               	clrf	main@trangthaim1
  5425  065C  01D1               	clrf	main@trangthaim1+1
  5426                           
  5427                           ;Mainprj2.c: 298:         trangthaim2=0;
  5428  065D  01D2               	clrf	main@trangthaim2
  5429  065E  01D3               	clrf	main@trangthaim2+1
  5430                           
  5431                           ;Mainprj2.c: 299:         trangthaim3=0;
  5432  065F  01D4               	clrf	main@trangthaim3
  5433  0660  01D5               	clrf	main@trangthaim3+1
  5434  0661                     l3382:
  5435                           
  5436                           ;Mainprj2.c: 300:         trangthai=1;
  5437  0661  3001               	movlw	1
  5438  0662  00DA               	movwf	main@trangthai
  5439  0663  3000               	movlw	0
  5440  0664  00DB               	movwf	main@trangthai+1
  5441  0665                     l3384:
  5442                           
  5443                           ;Mainprj2.c: 301:         phai=0;
  5444  0665  01DC               	clrf	main@phai
  5445  0666  01DD               	clrf	main@phai+1
  5446  0667                     l3386:
  5447                           
  5448                           ;Mainprj2.c: 302:         UART_Write('a');
  5449  0667  3061               	movlw	97
  5450  0668  120A  118A  27F1  120A  118A  	fcall	_UART_Write
  5451  066D                     l3388:
  5452                           
  5453                           ;Mainprj2.c: 303:          _delay((unsigned long)((100)*(20000000/4000.0)));
  5454  066D  3003               	movlw	3
  5455  066E  1283               	bcf	3,5	;RP0=0, select bank0
  5456  066F  1303               	bcf	3,6	;RP1=0, select bank0
  5457  0670  00BB               	movwf	??_main+2
  5458  0671  308A               	movlw	138
  5459  0672  00BA               	movwf	??_main+1
  5460  0673  3055               	movlw	85
  5461  0674  00B9               	movwf	??_main
  5462  0675                     u4777:
  5463  0675  0BB9               	decfsz	??_main,f
  5464  0676  2E75               	goto	u4777
  5465  0677  0BBA               	decfsz	??_main+1,f
  5466  0678  2E75               	goto	u4777
  5467  0679  0BBB               	decfsz	??_main+2,f
  5468  067A  2E75               	goto	u4777
  5469  067B                     l3390:
  5470                           
  5471                           ;Mainprj2.c: 305:     if (phai>0 && tinhnang==7) {
  5472  067B  1283               	bcf	3,5	;RP0=0, select bank0
  5473  067C  1303               	bcf	3,6	;RP1=0, select bank0
  5474  067D  085D               	movf	main@phai+1,w
  5475  067E  3A80               	xorlw	128
  5476  067F  00FF               	movwf	btemp+1
  5477  0680  3080               	movlw	128
  5478  0681  027F               	subwf	btemp+1,w
  5479  0682  1D03               	skipz
  5480  0683  2E86               	goto	u4365
  5481  0684  3001               	movlw	1
  5482  0685  025C               	subwf	main@phai,w
  5483  0686                     u4365:
  5484  0686  1C03               	skipc
  5485  0687  2E89               	goto	u4361
  5486  0688  2E8A               	goto	u4360
  5487  0689                     u4361:
  5488  0689  2EB9               	goto	l3402
  5489  068A                     u4360:
  5490  068A                     l3392:
  5491  068A  3007               	movlw	7
  5492  068B  1283               	bcf	3,5	;RP0=0, select bank0
  5493  068C  1303               	bcf	3,6	;RP1=0, select bank0
  5494  068D  065E               	xorwf	main@tinhnang,w
  5495  068E  045F               	iorwf	main@tinhnang+1,w
  5496  068F  1D03               	btfss	3,2
  5497  0690  2E92               	goto	u4371
  5498  0691  2E93               	goto	u4370
  5499  0692                     u4371:
  5500  0692  2EB9               	goto	l3402
  5501  0693                     u4370:
  5502  0693                     l3394:
  5503                           
  5504                           ;Mainprj2.c: 306:         trangthaim1=1;
  5505  0693  3001               	movlw	1
  5506  0694  00D0               	movwf	main@trangthaim1
  5507  0695  3000               	movlw	0
  5508  0696  00D1               	movwf	main@trangthaim1+1
  5509                           
  5510                           ;Mainprj2.c: 307:         trangthaim2=1;
  5511  0697  3001               	movlw	1
  5512  0698  00D2               	movwf	main@trangthaim2
  5513  0699  3000               	movlw	0
  5514  069A  00D3               	movwf	main@trangthaim2+1
  5515                           
  5516                           ;Mainprj2.c: 308:         trangthaim3=1;
  5517  069B  3001               	movlw	1
  5518  069C  00D4               	movwf	main@trangthaim3
  5519  069D  3000               	movlw	0
  5520  069E  00D5               	movwf	main@trangthaim3+1
  5521                           
  5522                           ;Mainprj2.c: 309:         trangthai=1;
  5523  069F  3001               	movlw	1
  5524  06A0  00DA               	movwf	main@trangthai
  5525  06A1  3000               	movlw	0
  5526  06A2  00DB               	movwf	main@trangthai+1
  5527  06A3                     l3396:
  5528                           
  5529                           ;Mainprj2.c: 310:         phai=0;
  5530  06A3  01DC               	clrf	main@phai
  5531  06A4  01DD               	clrf	main@phai+1
  5532  06A5                     l3398:
  5533                           
  5534                           ;Mainprj2.c: 311:         UART_Write('s');
  5535  06A5  3073               	movlw	115
  5536  06A6  120A  118A  27F1  120A  118A  	fcall	_UART_Write
  5537  06AB                     l3400:
  5538                           
  5539                           ;Mainprj2.c: 312:          _delay((unsigned long)((100)*(20000000/4000.0)));
  5540  06AB  3003               	movlw	3
  5541  06AC  1283               	bcf	3,5	;RP0=0, select bank0
  5542  06AD  1303               	bcf	3,6	;RP1=0, select bank0
  5543  06AE  00BB               	movwf	??_main+2
  5544  06AF  308A               	movlw	138
  5545  06B0  00BA               	movwf	??_main+1
  5546  06B1  3055               	movlw	85
  5547  06B2  00B9               	movwf	??_main
  5548  06B3                     u4787:
  5549  06B3  0BB9               	decfsz	??_main,f
  5550  06B4  2EB3               	goto	u4787
  5551  06B5  0BBA               	decfsz	??_main+1,f
  5552  06B6  2EB3               	goto	u4787
  5553  06B7  0BBB               	decfsz	??_main+2,f
  5554  06B8  2EB3               	goto	u4787
  5555  06B9                     l3402:
  5556                           
  5557                           ;Mainprj2.c: 314:         if (phai >0 && tinhnang == 8 && trangthaim4==0) {trangthaim4=1
      +                          ;phai=0;_delay((unsigned long)((1000)*(20000000/4000.0)));
  5558  06B9  1283               	bcf	3,5	;RP0=0, select bank0
  5559  06BA  1303               	bcf	3,6	;RP1=0, select bank0
  5560  06BB  085D               	movf	main@phai+1,w
  5561  06BC  3A80               	xorlw	128
  5562  06BD  00FF               	movwf	btemp+1
  5563  06BE  3080               	movlw	128
  5564  06BF  027F               	subwf	btemp+1,w
  5565  06C0  1D03               	skipz
  5566  06C1  2EC4               	goto	u4385
  5567  06C2  3001               	movlw	1
  5568  06C3  025C               	subwf	main@phai,w
  5569  06C4                     u4385:
  5570  06C4  1C03               	skipc
  5571  06C5  2EC7               	goto	u4381
  5572  06C6  2EC8               	goto	u4380
  5573  06C7                     u4381:
  5574  06C7  2F1D               	goto	l3428
  5575  06C8                     u4380:
  5576  06C8                     l3404:
  5577  06C8  3008               	movlw	8
  5578  06C9  1283               	bcf	3,5	;RP0=0, select bank0
  5579  06CA  1303               	bcf	3,6	;RP1=0, select bank0
  5580  06CB  065E               	xorwf	main@tinhnang,w
  5581  06CC  045F               	iorwf	main@tinhnang+1,w
  5582  06CD  1D03               	btfss	3,2
  5583  06CE  2ED0               	goto	u4391
  5584  06CF  2ED1               	goto	u4390
  5585  06D0                     u4391:
  5586  06D0  2F1D               	goto	l3428
  5587  06D1                     u4390:
  5588  06D1                     l3406:
  5589  06D1  084E               	movf	main@trangthaim4,w
  5590  06D2  044F               	iorwf	main@trangthaim4+1,w
  5591  06D3  1D03               	btfss	3,2
  5592  06D4  2ED6               	goto	u4401
  5593  06D5  2ED7               	goto	u4400
  5594  06D6                     u4401:
  5595  06D6  2F1D               	goto	l3428
  5596  06D7                     u4400:
  5597  06D7                     l3408:
  5598  06D7  3001               	movlw	1
  5599  06D8  00CE               	movwf	main@trangthaim4
  5600  06D9  3000               	movlw	0
  5601  06DA  00CF               	movwf	main@trangthaim4+1
  5602  06DB                     l3410:
  5603  06DB  01DC               	clrf	main@phai
  5604  06DC  01DD               	clrf	main@phai+1
  5605  06DD                     l3412:
  5606  06DD  301A               	movlw	26
  5607  06DE  1283               	bcf	3,5	;RP0=0, select bank0
  5608  06DF  1303               	bcf	3,6	;RP1=0, select bank0
  5609  06E0  00BB               	movwf	??_main+2
  5610  06E1  305E               	movlw	94
  5611  06E2  00BA               	movwf	??_main+1
  5612  06E3  306D               	movlw	109
  5613  06E4  00B9               	movwf	??_main
  5614  06E5                     u4797:
  5615  06E5  0BB9               	decfsz	??_main,f
  5616  06E6  2EE5               	goto	u4797
  5617  06E7  0BBA               	decfsz	??_main+1,f
  5618  06E8  2EE5               	goto	u4797
  5619  06E9  0BBB               	decfsz	??_main+2,f
  5620  06EA  2EE5               	goto	u4797
  5621  06EB  2EEC               	nop2
  5622  06EC                     l3414:
  5623                           
  5624                           ;Mainprj2.c: 315:         for (int i=1;i<5;i++)
  5625  06EC  3001               	movlw	1
  5626  06ED  1283               	bcf	3,5	;RP0=0, select bank0
  5627  06EE  1303               	bcf	3,6	;RP1=0, select bank0
  5628  06EF  00C2               	movwf	main@i
  5629  06F0  3000               	movlw	0
  5630  06F1  00C3               	movwf	main@i+1
  5631  06F2                     l3416:
  5632  06F2  0843               	movf	main@i+1,w
  5633  06F3  3A80               	xorlw	128
  5634  06F4  00FF               	movwf	btemp+1
  5635  06F5  3080               	movlw	128
  5636  06F6  027F               	subwf	btemp+1,w
  5637  06F7  1D03               	skipz
  5638  06F8  2EFB               	goto	u4415
  5639  06F9  3005               	movlw	5
  5640  06FA  0242               	subwf	main@i,w
  5641  06FB                     u4415:
  5642  06FB  1C03               	skipc
  5643  06FC  2EFE               	goto	u4411
  5644  06FD  2EFF               	goto	u4410
  5645  06FE                     u4411:
  5646  06FE  2F00               	goto	l3420
  5647  06FF                     u4410:
  5648  06FF  2F1D               	goto	l3428
  5649  0700                     l3420:
  5650                           
  5651                           ;Mainprj2.c: 316:         {UART_Write('p');
  5652  0700  3070               	movlw	112
  5653  0701  120A  118A  27F1  120A  118A  	fcall	_UART_Write
  5654  0706                     l3422:
  5655                           
  5656                           ;Mainprj2.c: 317:          _delay((unsigned long)((100)*(20000000/4000.0)));}}
  5657  0706  3003               	movlw	3
  5658  0707  1283               	bcf	3,5	;RP0=0, select bank0
  5659  0708  1303               	bcf	3,6	;RP1=0, select bank0
  5660  0709  00BB               	movwf	??_main+2
  5661  070A  308A               	movlw	138
  5662  070B  00BA               	movwf	??_main+1
  5663  070C  3055               	movlw	85
  5664  070D  00B9               	movwf	??_main
  5665  070E                     u4807:
  5666  070E  0BB9               	decfsz	??_main,f
  5667  070F  2F0E               	goto	u4807
  5668  0710  0BBA               	decfsz	??_main+1,f
  5669  0711  2F0E               	goto	u4807
  5670  0712  0BBB               	decfsz	??_main+2,f
  5671  0713  2F0E               	goto	u4807
  5672  0714                     l3424:
  5673  0714  3001               	movlw	1
  5674  0715  1283               	bcf	3,5	;RP0=0, select bank0
  5675  0716  1303               	bcf	3,6	;RP1=0, select bank0
  5676  0717  07C2               	addwf	main@i,f
  5677  0718  1803               	skipnc
  5678  0719  0AC3               	incf	main@i+1,f
  5679  071A  3000               	movlw	0
  5680  071B  07C3               	addwf	main@i+1,f
  5681  071C  2EF2               	goto	l3416
  5682  071D                     l3428:
  5683                           
  5684                           ;Mainprj2.c: 318:     if (phai >0 && tinhnang == 8 && trangthaim4==1) {trangthaim4=0;pha
      +                          i=0;_delay((unsigned long)((1000)*(20000000/4000.0))); }
  5685  071D  1283               	bcf	3,5	;RP0=0, select bank0
  5686  071E  1303               	bcf	3,6	;RP1=0, select bank0
  5687  071F  085D               	movf	main@phai+1,w
  5688  0720  3A80               	xorlw	128
  5689  0721  00FF               	movwf	btemp+1
  5690  0722  3080               	movlw	128
  5691  0723  027F               	subwf	btemp+1,w
  5692  0724  1D03               	skipz
  5693  0725  2F28               	goto	u4425
  5694  0726  3001               	movlw	1
  5695  0727  025C               	subwf	main@phai,w
  5696  0728                     u4425:
  5697  0728  1C03               	skipc
  5698  0729  2F2B               	goto	u4421
  5699  072A  2F2E               	goto	u4420
  5700  072B                     u4421:
  5701  072B  120A  158A  2E2A   	goto	l2886
  5702  072E                     u4420:
  5703  072E                     l3430:
  5704  072E  3008               	movlw	8
  5705  072F  1283               	bcf	3,5	;RP0=0, select bank0
  5706  0730  1303               	bcf	3,6	;RP1=0, select bank0
  5707  0731  065E               	xorwf	main@tinhnang,w
  5708  0732  045F               	iorwf	main@tinhnang+1,w
  5709  0733  1D03               	btfss	3,2
  5710  0734  2F36               	goto	u4431
  5711  0735  2F37               	goto	u4430
  5712  0736                     u4431:
  5713  0736  2F2B               	goto	u4421
  5714  0737                     u4430:
  5715  0737                     l3432:
  5716  0737  034E               	decf	main@trangthaim4,w
  5717  0738  044F               	iorwf	main@trangthaim4+1,w
  5718  0739  1D03               	btfss	3,2
  5719  073A  2F3C               	goto	u4441
  5720  073B  2F3D               	goto	u4440
  5721  073C                     u4441:
  5722  073C  2F2B               	goto	u4421
  5723  073D                     u4440:
  5724  073D                     l3434:
  5725  073D  01CE               	clrf	main@trangthaim4
  5726  073E  01CF               	clrf	main@trangthaim4+1
  5727  073F  01DC               	clrf	main@phai
  5728  0740  01DD               	clrf	main@phai+1
  5729  0741                     l3436:
  5730  0741  301A               	movlw	26
  5731  0742  1283               	bcf	3,5	;RP0=0, select bank0
  5732  0743  1303               	bcf	3,6	;RP1=0, select bank0
  5733  0744  00BB               	movwf	??_main+2
  5734  0745  305E               	movlw	94
  5735  0746  00BA               	movwf	??_main+1
  5736  0747  306D               	movlw	109
  5737  0748  00B9               	movwf	??_main
  5738  0749                     u4817:
  5739  0749  0BB9               	decfsz	??_main,f
  5740  074A  2F49               	goto	u4817
  5741  074B  0BBA               	decfsz	??_main+1,f
  5742  074C  2F49               	goto	u4817
  5743  074D  0BBB               	decfsz	??_main+2,f
  5744  074E  2F49               	goto	u4817
  5745  074F  2F50               	nop2
  5746  0750  2F2B               	goto	u4421
  5747  0751  120A  118A  280C   	ljmp	start
  5748  0754                     __end_of_main:

Data Sizes:
    Strings     106
    Constant    0
    Data        0
    BSS         26
    Persistent  0
    Stack       0

Auto Spaces:
    Space          Size  Autos    Used
    COMMON           14     10      12
    BANK0            80     64      78
    BANK1            80      0      10
    BANK3            96      0       0
    BANK2            96      0       0

Pointer List with Targets:

    _doprnt$2	PTR PTR void  size(1) Largest target is 1
		 -> sprintf@ap(COMMON[1]), 

    _doprnt$1	PTR const unsigned char  size(1) Largest target is 3
		 -> STR_32(CODE[3]), STR_31(CODE[3]), STR_29(CODE[3]), STR_28(CODE[3]), 
		 -> STR_26(CODE[3]), STR_25(CODE[3]), 

    _doprnt$0	PTR struct __prbuf size(1) Largest target is 3
		 -> sprintf@pb(COMMON[2]), 

    S877__prbuf$func	PTR FTN(unsigned char ,)void  size(1) Largest target is 1
		 -> Absolute function(), 

    pb.func	PTR FTN(unsigned char ,)void  size(1) Largest target is 1
		 -> Absolute function(), 

    S877__prbuf$ptr	PTR unsigned char  size(1) Largest target is 0

    pb.ptr	PTR unsigned char  size(1) Largest target is 0

    Lcd_Write_String@a	PTR unsigned char  size(1) Largest target is 10
		 -> STR_30(CODE[2]), STR_27(CODE[2]), STR_24(CODE[2]), STR_23(CODE[2]), 
		 -> STR_22(CODE[2]), STR_21(CODE[2]), STR_20(CODE[2]), STR_19(CODE[2]), 
		 -> STR_18(CODE[2]), STR_17(CODE[2]), STR_16(CODE[10]), STR_15(CODE[10]), 
		 -> STR_14(CODE[4]), STR_13(CODE[4]), STR_12(CODE[4]), STR_11(CODE[4]), 
		 -> STR_10(CODE[2]), STR_9(CODE[7]), STR_8(CODE[7]), STR_7(CODE[7]), 
		 -> STR_6(CODE[7]), STR_5(CODE[7]), STR_4(CODE[7]), STR_3(CODE[7]), 
		 -> STR_2(CODE[7]), STR_1(CODE[7]), 


Critical Paths under _main in COMMON

    _main->_Lcd_Write_String
    _UART_Init->___aldiv
    _Lcd_Write_String->_Lcd_Write_Char
    _Lcd_Write_Char->_Lcd_Port
    _Lcd_Set_Cursor->_Lcd_Cmd
    _Lcd_Init->_Lcd_Cmd
    _Lcd_Cmd->_Lcd_Port

Critical Paths under _ISR in COMMON

    None.

Critical Paths under _main in BANK0

    _main->_UART_Init
    _UART_Init->___aldiv

Critical Paths under _ISR in BANK0

    None.

Critical Paths under _main in BANK1

    None.

Critical Paths under _ISR in BANK1

    None.

Critical Paths under _main in BANK3

    None.

Critical Paths under _ISR in BANK3

    None.

Critical Paths under _main in BANK2

    None.

Critical Paths under _ISR in BANK2

    None.

Call Graph Tables:

 ---------------------------------------------------------------------------------
 (Depth) Function   	        Calls       Base Space   Used Autos Params    Refs
 ---------------------------------------------------------------------------------
 (0) _main                                                40    40      0    9509
                                             25 BANK0     39    39      0
                     _ADC_Initialize
                           _ADC_Read
                           _Lcd_Init
                     _Lcd_Set_Cursor
                   _Lcd_Write_String
                          _TMR0_Unit
                          _UART_Init
                         _UART_Write
 ---------------------------------------------------------------------------------
 (1) _UART_Write                                           1     1      0      22
                                              2 COMMON     1     1      0
 ---------------------------------------------------------------------------------
 (1) _UART_Init                                           18    14      4    1658
                                              7 BANK0     18    14      4
                            ___aldiv
 ---------------------------------------------------------------------------------
 (2) ___aldiv                                             15     7      8    1345
                                              2 COMMON     8     0      8
                                              0 BANK0      7     7      0
 ---------------------------------------------------------------------------------
 (1) _TMR0_Unit                                            0     0      0       0
 ---------------------------------------------------------------------------------
 (1) _Lcd_Write_String                                     3     3      0    1324
                                              7 COMMON     3     3      0
                     _Lcd_Write_Char
 ---------------------------------------------------------------------------------
 (2) _Lcd_Write_Char                                       4     4      0     178
                                              3 COMMON     4     4      0
                           _Lcd_Port
 ---------------------------------------------------------------------------------
 (1) _Lcd_Set_Cursor                                       7     6      1    2660
                                              6 COMMON     3     2      1
                                              0 BANK0      4     4      0
                            _Lcd_Cmd
 ---------------------------------------------------------------------------------
 (1) _Lcd_Init                                             2     2      0     198
                                              6 COMMON     2     2      0
                            _Lcd_Cmd
                           _Lcd_Port
 ---------------------------------------------------------------------------------
 (2) _Lcd_Cmd                                              3     3      0     110
                                              3 COMMON     3     3      0
                           _Lcd_Port
 ---------------------------------------------------------------------------------
 (3) _Lcd_Port                                             1     1      0      88
                                              2 COMMON     1     1      0
 ---------------------------------------------------------------------------------
 (1) _ADC_Read                                             5     3      2      22
                                              2 COMMON     5     3      2
 ---------------------------------------------------------------------------------
 (1) _ADC_Initialize                                       0     0      0       0
 ---------------------------------------------------------------------------------
 Estimated maximum stack depth 3
 ---------------------------------------------------------------------------------
 (Depth) Function   	        Calls       Base Space   Used Autos Params    Refs
 ---------------------------------------------------------------------------------
 (4) _ISR                                                  2     2      0       0
                                              0 COMMON     2     2      0
 ---------------------------------------------------------------------------------
 Estimated maximum stack depth 4
 ---------------------------------------------------------------------------------

 Call Graph Graphs:

 _main (ROOT)
   _ADC_Initialize
   _ADC_Read
   _Lcd_Init
     _Lcd_Cmd
       _Lcd_Port
     _Lcd_Port
   _Lcd_Set_Cursor
     _Lcd_Cmd
       _Lcd_Port
   _Lcd_Write_String
     _Lcd_Write_Char
       _Lcd_Port
   _TMR0_Unit
   _UART_Init
     ___aldiv
   _UART_Write

 _ISR (ROOT)

 Address spaces:
Name               Size   Autos  Total    Cost      Usage
BITCOMMON            E      0       0       0        0.0%
EEDATA             100      0       0       0        0.0%
NULL                 0      0       0       0        0.0%
CODE                 0      0       0       0        0.0%
COMMON               E      A       C       1       85.7%
BITSFR0              0      0       0       1        0.0%
SFR0                 0      0       0       1        0.0%
BITSFR1              0      0       0       2        0.0%
SFR1                 0      0       0       2        0.0%
STACK                0      0       0       2        0.0%
ABS                  0      0      64       3        0.0%
BITBANK0            50      0       0       4        0.0%
BITSFR3              0      0       0       4        0.0%
SFR3                 0      0       0       4        0.0%
BANK0               50     40      4E       5       97.5%
BITSFR2              0      0       0       5        0.0%
SFR2                 0      0       0       5        0.0%
BITBANK1            50      0       0       6        0.0%
BANK1               50      0       A       7       12.5%
BITBANK3            60      0       0       8        0.0%
BANK3               60      0       0       9        0.0%
BITBANK2            60      0       0      10        0.0%
BANK2               60      0       0      11        0.0%
DATA                 0      0      64      12        0.0%


Microchip Technology PIC Macro Assembler V2.30 build 20200825195618 
Symbol Table                                                                                   Tue Jun 21 20:02:53 2022

                        _s 00A0                          _x 0068                          pc 0002  
                       l53 0DD9                         l56 07F2                         l59 07FC  
                       fsr 0004                        l130 01F7                        l220 0BAE  
                      l221 0BAF                        l222 0BB5                        l223 0BB6  
                      l224 0BBC                        l241 0CFC                        l226 0BBD  
                      l218 0BA7                        l250 0BE2                        l219 0BA8  
                      l340 0B55                        l244 0C46                        l229 0B81  
                      l238 0C9E                        l343 0C03                        l346 0C0D  
                      l274 0B67                        l514 0768                        l524 07F0  
                      _RD0 0040                        _RD1 0041                        _RD2 0042  
                      _RD4 0044                        _RD5 0045                        _RD6 0046  
                      _RD7 0047                        _PR2 0092                        _ISR 0B82  
                      fsr0 0004                        indf 0000                       ?_ISR 0070  
                     l2000 07F2                       l2010 0B62                       l2002 07F8  
                     l2020 0B4D                       l2012 0B63                       l2004 0B56  
                     l2030 0CC3                       l2022 0C9F                       l2014 0B64  
                     l2006 0B5B                       l2024 0CA5                       l2040 0C6B  
                     l2032 0C4A                       l2016 0B65                       l2008 0B5F  
                     l3000 00A3                       l2026 0CAE                       l2050 0C96  
                     l2034 0C4F                       l2042 0C74                       l2018 0B66  
                     l3010 00C0                       l3002 00AB                       l2060 0BE4  
                     l2028 0CBD                       l2044 0C7A                       l2036 0C60  
                     l2052 0BBF                       l3100 021B                       l3020 00F7  
                     l3012 00CF                       l3004 00AD                       l2062 0BF7  
                     l2046 0C8B                       l2038 0C65                       l2054 0BC2  
                     l3110 0242                       l3102 0221                       l3030 0109  
                     l3022 00F9                       l3014 00DE                       l3006 00AF  
                     l2064 0C00                       l2048 0C90                       l2056 0BCF  
                     l3120 026B                       l3112 024C                       l3104 0229  
                     l3040 0129                       l3032 010B                       l3024 00FF  
                     l3016 00F3                       l3008 00B1                       l2066 0C07  
                     l2058 0BD5                       l3210 0352                       l3130 028C  
                     l3202 032F                       l3122 0274                       l3114 0252  
                     l3106 0233                       l3050 0148                       l3042 012D  
                     l3034 010D                       l3026 0101                       l3018 00F5  
                     l3300 04D8                       l3220 037D                       l3212 035A  
                     l3204 033C                       l3140 02A6                       l3132 0291  
                     l3124 027A                       l3116 025B                       l3108 0239  
                     l3060 016E                       l3052 014F                       l3044 0134  
                     l3036 0113                       l3028 0105                main@dongcua 0046  
                     l3310 0508                       l3302 04E6                       l3230 03A6  
                     l3222 0387                       l3214 0367                       l3206 0344  
                     l3150 02BB                       l3134 0298                       l3126 027F  
                     l3118 0265                       l3070 0197                       l3062 0178  
                     l3054 0156                       l3046 0138                       l3038 0121  
                     l3400 06AB                       l3320 0543                       l3312 0517  
                     l3304 04F5                       l3240 03CF                       l3232 03B0  
                     l3224 038E                       l3216 036F                       l3208 034C  
                     l3152 02C2                       l3144 02AD                       l3128 0286  
                     l3080 01C0                       l3072 019E                       l3064 017F  
                     l3056 0160                       l3048 013E                       l3410 06DB  
                     l3402 06B9                       l3330 0564                       l3322 0549  
                     l3314 051D                       l3306 04FE                       l3250 03F8  
                     l3242 03D9                       l3234 03B7                       l3226 0398  
                     l3218 0375                       l3170 02EB                       l3162 02D7  
                     l3146 02B4                       l3138 029F                       l3090 01E6  
                     l3082 01C7                       l3074 01A8                       l3066 0186  
                     l3058 0167                       l1900 0BB3                       l3420 0700  
                     l3412 06DD                       l3404 06C8                       l3340 0594  
                     l3324 054D                       l3332 0572                       l3308 0504  
                     l3316 052B                       l3260 0428                       l3252 0402  
                     l3244 03E0                       l3236 03C1                       l3228 039E  
                     l3172 02F1                       l3164 02DE                       l3156 02C9  
                     l3092 01F0                       l3084 01CE                       l3076 01AF  
                     l3068 0190                       l1902 0BBA                       l1910 0B75  
                     l3430 072E                       l3422 0706                       l3414 06EC  
                     l3406 06D1                       l3350 05CF                       l3342 05A3  
                     l3334 0581                       l3326 054F                       l3318 053A  
                     l3270 0444                       l3262 0430                       l3254 0409  
                     l3246 03EA                       l3238 03C7                       l3174 0300  
                     l3158 02D0                       l3086 01D8                       l3078 01B6  
                     l3094 01F7                       l1912 0B7E                       l1904 0B69  
                     l1920 0C2A                       l2800 077B                       l3432 0737  
                     l3424 0714                       l3416 06F2                       l3408 06D7  
                     l3360 05F0                       l3352 05D5                       l3344 05A9  
                     l3336 058A                       l3328 055E                       l3280 0482  
                     l3264 0434                       l3272 0453                       l3256 0413  
                     l3248 03F0                       l3192 0321                       l3184 0313  
                     l3176 0305                       l3168 02E5                       l3096 0209  
                     l3088 01DF                       l1906 0B6C                       l1930 0C3E  
                     l1922 0C2D                       l1914 0C0F                       l2810 079F  
                     l2802 0783                       l3434 073D                       l3370 0620  
                     l3354 05D9                       l3362 05FE                       l3338 0590  
                     l3346 05B7                       l3290 04B7                       l3282 048A  
                     l3274 0462                       l3266 0436                       l3258 0419  
                     l3194 0328                       l3186 031A                       l3178 030C  
                     l3098 0211                       l1908 0B72                       l1932 0C43  
                     l1924 0C32                       l1916 0C19                       l2820 07D2  
                     l2812 07A8                       l2804 078B                       l3436 0741  
                     l3428 071D                       l3380 065B                       l3372 062F  
                     l3364 060D                       l3356 05DB                       l3348 05C6  
                     l3292 04BD                       l3284 0490                       l3276 046B  
                     l3268 043E                       l2900 0E74                       l1926 0C35  
                     l1918 0C1C                       l2814 07BA                       l2806 078E  
                     l2822 07D8                       l2830 0CFD                       l3382 0661  
                     l3390 067B                       l3374 0635                       l3366 0616  
                     l3358 05EA                       l3294 04C1                       l3278 0480  
                     l3286 049F                       l2902 0E76                       l2910 0E9E  
                     l1928 0C3B                       l2824 07DD                       l2816 07C8  
                     l2808 079B                       l2840 0DC7                       l2832 0D58  
                     l3392 068A                       l3384 0665                       l3368 061C  
                     l3376 0643                       l3296 04C3                       l3288 04AE  
                     l2920 0EC8                       l2912 0EAD                       l2904 0E78  
                     l2826 07E8                       l2818 07C9                       l2850 0DD3  
                     l2842 0DCB                       l2834 0D61                       l3394 0693  
                     l3386 0667                       l3378 0652                       l3298 04D2  
                     l2930 0F0C                       l2922 0ECA                       l2914 0EBC  
                     l2906 0E7A                       l2852 0DD6                       l2844 0DCC  
                     l2836 0DBA                       l3396 06A3                       l3388 066D  
                     l2940 0F29                       l2932 0F1B                       l2924 0ED7  
                     l2916 0EC4                       l2908 0E87                       l2860 0DDA  
                     l1894 0B9E                       l2790 0754                       l2846 0DCF  
                     l2838 0DBD                       l3398 06A5                       l2950 0F73  
                     l2942 0F36                       l2934 0F23                       l2918 0EC6  
                     l2926 0EEE                       l2870 0DFF                       l2862 0DDD  
                     l1896 0BA5                       l2792 0757                       l2848 0DD2  
                     l2952 0F75                       l2960 0F9D                       l2936 0F25  
                     l2928 0EFD                       l2944 0F4D                       l2880 0E22  
                     l2872 0E12                       l2864 0DEC                       l1898 0BAC  
                     l2794 075B                       l2970 0FC7                       l2962 0FAC  
                     l2954 0F77                       l2946 0F5C                       l2938 0F27  
                     l2890 0E38                       l2882 0E26                       l2874 0E16  
                     l2866 0DF7                       l2796 076C                       l2980 0035  
                     l2972 0FC9                       l2964 0FBB                       l2956 0F79  
                     l2948 0F6B                       l2892 0E44                       l2884 0E28  
                     l2876 0E1C                       l2868 0DFA                       l2798 0777  
                     l2990 0052                       l2982 0044                       l2974 0FD6  
                     l2966 0FC3                       l2958 0F86                       l2894 0E50  
                     l2886 0E2A                       l2878 0E1E                       l2992 005F  
                     l2984 004C                       l2968 0FC5                       l2976 0FED  
                     l2896 0E5D                       l2888 0E32                       l2986 004E  
                     l2978 0026                       l2994 0076                       l2898 0E6C  
                     l2996 0085                       l2988 0050                       l2998 0094  
                     STR_1 082F                       STR_2 083D                       STR_3 0836  
                     STR_4 081A                       STR_5 0821                       STR_6 0828  
                     STR_7 084B                       STR_8 0852                       STR_9 0844  
                     _BRGH 04C2                       _CREN 00C4                       u4000 031A  
                     u4001 0319                       u3210 075B                       u4010 0320  
                     u3211 075A                       u4011 031F                       u3300 07DD  
                     u3220 076C                       u4100 03CF                       u4020 0328  
                     u3301 07DC                       u3221 076B                       u4101 03CE  
                     u4021 0327                       u1630 0BA5                       u3230 078B  
                     u3310 0D0D                       u4110 03F8                       u4030 032E  
                     u1631 0BA4                       u3231 078A                       u4111 03F7  
                     u4031 032D                       u1640 0BAC                       u3320 0D26  
                     u4200 04FE                       u4120 0428                       u4040 033C  
                     u3400 0E5D                       u1641 0BAB                       u4201 04FD  
                     u4121 0427                       u4041 033B                       u3401 0E5C  
                     u1650 0BB3                       u3250 079F                       u4210 0504  
                     u4130 0430                       u4050 0344                       u3410 0E6C  
                     u1651 0BB2                       u3251 079E                       u3331 0D38  
                     u3315 0D08                       u4211 0503                       u4131 042F  
                     u4051 0343                       u3411 0E6B                       u1660 0BBA  
                     u3340 0D61                       u3332 0D39                       u4300 05D5  
                     u4220 053A                       u4140 0462                       u4060 035A  
                     u3500 0F5C                       u3420 0E87                       u1661 0BB9  
                     u3245 0790                       u3341 0D60                       u3333 0D3E  
                     u3325 0D21                       u4301 05D4                       u4221 0539  
                     u4141 0461                       u4125 0424                       u4061 0359  
                     u4045 0338                       u3501 0F5B                       u3421 0E86  
                     u3405 0E59                       u1910 0BE2                       u3270 07BA  
                     u3350 0D6F                       u3334 0D3F                       u4310 060D  
                     u4230 0543                       u4150 046B                       u4070 0367  
                     u3510 0F6B                       u3430 0EAD                       u1911 0BE1  
                     u3271 07B9                       u3335 0D44                       u4311 060C  
                     u4231 0542                       u4151 046A                       u4071 0366  
                     u3511 0F6A                       u3431 0EAC                       u3415 0E68  
                     u3360 0D88                       u3336 0D45                       u4400 06D7  
                     u4320 0616                       u4240 0549                       u4160 04AE  
                     u4080 037D                       u3600 0085                       u3520 0F86  
                     u3440 0EBC                       u1905 0C82                       u3265 07A1  
                     u4401 06D6                       u4321 0615                       u4241 0548  
                     u4225 0536                       u4161 04AD                       u4145 045E  
                     u4081 037C                       u3601 0084                       u3521 0F85  
                     u3505 0F58                       u3441 0EBB                       u3425 0E83  
                     u1930 0C07                       u3290 07D8                       u4410 06FF  
                     u4330 061C                       u4250 0581                       u4170 04B7  
                     u4090 03A6                       u3610 0094                       u3530 0FAC  
                     u3450 0ED7                       u1931 0C06                       u1675 0C1F  
                     u3291 07D7                       u3275 07B6                       u3371 0D9A  
                     u3355 0D6A                       u4411 06FE                       u4331 061B  
                     u4315 0609                       u4251 0580                       u4171 04B6  
                     u4091 03A5                       u4075 0363                       u3611 0093  
                     u3531 0FAB                       u3515 0F67                       u3451 0ED6  
                     u3435 0EA9                       u3380 0DC7                       u3372 0D9B  
                     u1860 07F8                       u4420 072E                       u4340 0652  
                     u4260 058A                       u4180 04BD                       u3700 016E  
                     u3620 00A3                       u3540 0FBB                       u3460 0EFD  
                     u1925 0BED                       u3285 07CA                       u3381 0DC6  
                     u3373 0DA0                       u3365 0D83                       u1861 07F7  
                     u4421 072B                       u4341 0651                       u4261 0589  
                     u4181 04BC                       u4165 04AA                       u3701 016D  
                     u3621 00A2                       u3605 0081                       u3541 0FBA  
                     u3525 0F82                       u3461 0EFC                       u3445 0EB8  
                     u1870 0C4F                       u3374 0DA1                       u4430 0737  
                     u4350 065B                       u4270 0590                       u4190 04F5  
                     u3710 0186                       u3630 00C0                       u3550 0FD6  
                     u3470 0F0C                       u1871 0C4E                       u3375 0DA6  
                     u4431 0736                       u4415 06FB                       u4351 065A  
                     u4271 058F                       u4255 057D                       u4191 04F4  
                     u3711 0185                       u3631 00BF                       u3615 0090  
                     u3551 0FD5                       u3535 0FA8                       u3471 0F0B  
                     u3455 0ED3                       u3376 0DA7                       u4440 073D  
                     u4360 068A                       u4280 05C6                       u3800 0274  
                     u3720 019E                       u3640 00CF                       u3560 0026  
                     u3480 0F1B                       u4441 073C                       u4425 0728  
                     u4361 0689                       u4345 064E                       u4281 05C5  
                     u3801 0273                       u3721 019D                       u3641 00CE  
                     u3625 009F                       u3561 0FFD                       u3545 0FB7  
                     u3481 0F1A                       u3465 0EF9                       u1890 0C7A  
                     u4370 0693                       u4290 05CF                       u3810 027A  
                     u3730 01B6                       u3650 00DE                       u3570 0035  
                     u3490 0F36                       u1891 0C79                       u4371 0692  
                     u4291 05CE                       u4195 04F1                       u3811 0279  
                     u3731 01B5                       u3651 00DD                       u3635 00BC  
                     u3571 0034                       u3555 0FD2                       u3491 0F35  
                     u3475 0F08                       u4380 06C8                       u3900 02C2  
                     u3820 0286                       u3740 01CE                       u3660 0129  
                     u3580 0044                       u1885 0C57                       u4381 06C7  
                     u4365 0686                       u4285 05C2                       u3901 02C1  
                     u3821 0285                       u3741 01CD                       u3661 0128  
                     u3645 00CB                       u3581 0043                       u3565 0FF8  
                     u3485 0F17                       u4390 06D1                       u3910 02C8  
                     u3830 028C                       u3750 01E6                       u3670 0134  
                     u3590 005F                       u4391 06D0                       u3911 02C7  
                     u3831 028B                       u3751 01E5                       u3671 0133  
                     u4607 011B                       u3655 00DA                       u3591 005E  
                     u3575 0031                       u3495 0F32                       u3920 02D0  
                     u3840 0298                       u3760 0211                       u3680 013E  
                     u4385 06C4                       u4617 02F9                       u3921 02CF  
                     u3841 0297                       u3761 0210                       u3681 013D  
                     u3585 0040                       u4537 0E97                       u3930 02D6  
                     u3850 029E                       u3770 0229                       u3690 0156  
                     u4707 056C                       u4627 044C                       u3931 02D5  
                     u3851 029D                       u3771 0228                       u3691 0155  
                     u3595 005B                       u4547 0EE7                       u3940 02DE  
                     u3860 02A6                       u3780 0242                       _RCIF 0065  
                     u4717 059C                       u4637 0473                       u3941 02DD  
                     u3861 02A5                       u3781 0241                       u4557 0F46  
                     u3950 02E4                       u3870 02AC                       u3790 025B  
                     u4807 070E                       u4727 05B1                       u4647 0498  
                     u3951 02E3                       u3871 02AB                       u3791 025A  
                     u4567 0F96                       u3960 02EB                       u3880 02B4  
                     u4817 0749                       u4737 05E3                       u4657 04CB  
                     u3961 02EA                       u3881 02B3                       u4577 0FE6  
                     u3970 02F1                       u3890 02BA                       u4827 0C2F  
                     u4747 05F8                       u4667 04E0                       u3971 02F0  
                     u3891 02B9                       u4587 006F                       u3980 030C  
                     u4837 0C40                       u4757 0628                       u4677 0510  
                     u3981 030B                       u4597 00E6                       u3990 0312  
                     u4847 0CA9                       u4767 063D                       u4687 0525  
                     u3991 0311                       u4857 0CB8                       u4777 0675  
                     u4697 0557                       u4867 0CC7                       u4787 06B3  
                     u4877 0B79                       u4797 06E5                       u4887 0BFB  
                     _TMR0 0001                       _SPEN 00C7                       _TRMT 04C1  
                     _TXEN 04C5                       _SYNC 04C4          ?_Lcd_Write_String 0070  
                     _main 0DDA                       _freq 006A                       _duty 0060  
                     _hour 0062                       btemp 007E           __end_of_ADC_Read 0C0E  
                     start 000C         ??_Lcd_Write_String 0077            __end_of_Lcd_Cmd 0B82  
                    ??_ISR 0070            __end_of___aldiv 07F1                      ?_main 0070  
                    _CCP1X 00BD                      _CCP1Y 00BC                      _CCP2X 00ED  
                    _CCP2Y 00EC                      STR_10 086C                      STR_11 0859  
                    STR_20 0826                      STR_12 085D                      STR_21 085B  
                    STR_13 0861                      STR_22 082D                      STR_14 0865  
                    STR_23 085B                      STR_15 0806                      STR_24 086E  
                    STR_16 0810                      STR_17 085B                      STR_25 0869  
                    STR_18 081F                      STR_19 085B                      i1l197 0B96  
                    _RCREG 001A                      _SPBRG 0099                      _PORTC 0007  
  __size_of_Lcd_Set_Cursor 0058                      _TRISC 0087                      _TRISD 0088  
                    _TXREG 0019                ?_UART_Write 0070         __size_of_UART_Init 00DD  
       __size_of_TMR0_Unit 0012                      _count 007A                      main@i 0042  
                    main@y 003E                      pclath 000A               main@tinhnang 005E  
                    status 0003                      wtemp0 007E           __end_of_Lcd_Init 0CFD  
         __end_of_Lcd_Port 0BBE            __initialization 000F               __end_of_main 0754  
                   ??_main 0039                     _ADCON0 001F                     _ADCON1 009F  
                   _ADRESH 001E                     _ADRESL 009E                     _CCPR1L 0015  
                   _CCPR2L 001B                     i1l1750 0B87                     i1l1752 0B8D  
                   i1l1754 0B94                     i1l1746 0B82                     i1l1748 0B86  
                   u141_20 0B86                     u141_21 0B85                     u142_20 0B94  
                   u142_21 0B93                  ??_Lcd_Cmd 0073    __size_of_Lcd_Write_Char 0039  
                   _TRISB1 0431                     _TRISC6 043E                     _TRISC7 043F  
        __end_of_UART_Init 0DDA        __size_of_UART_Write 000C                  ??___aldiv 0020  
        __end_of_TMR0_Unit 0B68            ADC_Read@channel 0076                     _minute 0066  
                   _second 0064                  ?_ADC_Read 0072                     saved_w 007E  
            main@trangthai 005A            Lcd_Set_Cursor@a 0020            Lcd_Set_Cursor@b 0076  
          Lcd_Set_Cursor@y 0022            Lcd_Set_Cursor@z 0021    __end_of__initialization 0022  
           __pcstackCOMMON 0070             _Lcd_Set_Cursor 0C47             _OPTION_REGbits 0081  
               ??_ADC_Read 0074                  ?_Lcd_Init 0070                  ?_Lcd_Port 0070  
               __pbssBANK0 0060                 __pbssBANK1 00A0                 __pmaintext 0DDA  
               __pintentry 0004  __size_of_Lcd_Write_String 0025     __end_of_Lcd_Set_Cursor 0C9F  
  __size_of_ADC_Initialize 0009               ??_UART_Write 0072                 ??_Lcd_Init 0076  
               ??_Lcd_Port 0072                 __stringtab 0800             _Lcd_Write_Char 0C0E  
                  _Lcd_Cmd 0B68                    ___aldiv 0754         __end_of_UART_Write 07FD  
          ?_Lcd_Set_Cursor 0076                    __ptext1 07F1                    __ptext2 0CFD  
                  __ptext3 0754                    __ptext4 0B56                    __ptext5 0BBE  
                  __ptext6 0C0E                    __ptext7 0C47                    __ptext8 0C9F  
                  __ptext9 0B68               __size_of_ISR 001B                  _T2CONbits 0012  
         ___aldiv@dividend 0076                    main@dem 0040                    main@len 004A  
                  clrloop0 0B46     __end_of_Lcd_Write_Char 0C47       end_of_initialization 0022  
         ___aldiv@quotient 0023                    psplit$0 A001A                  Lcd_Port@a 0072  
                _UART_Init 0CFD                  _TMR0_Unit 0B56             UART_Write@data 0072  
                _TRISCbits 0087       pnum$maintext_split_1 001A          __size_of_ADC_Read 002B  
          ?_Lcd_Write_Char 0070          Lcd_Write_String@a 0079          Lcd_Write_String@i 0077  
              _CCP1CONbits 0017                _CCP2CONbits 001D           _Lcd_Write_String 0BBE  
               ?_UART_Init 0027             _ADC_Initialize 0B4D                 ?_TMR0_Unit 0070  
      start_initialization 000F                __end_of_ISR 0B9D          __size_of_Lcd_Init 005E  
        __size_of_Lcd_Port 0021     __end_of_ADC_Initialize 0B56            Lcd_Write_Char@a 0076  
          Lcd_Write_Char@y 0075                __pbssCOMMON 007A                  ___latbits 0002  
            __pcstackBANK0 0020                   ?_Lcd_Cmd 0070           ??_Lcd_Set_Cursor 0077  
                 ?___aldiv 0072            ?_ADC_Initialize 0070                ??_UART_Init 002B  
                __pstrings 0800                ??_TMR0_Unit 0072                   _ADC_Read 0BE3  
               UART_Init@x 0037            ___aldiv@divisor 0072          interrupt_function 0004  
          ___aldiv@counter 0021                  clear_ram0 0B45                   Lcd_Cmd@a 0075  
                 _GO_nDONE 00FA          UART_Init@baudrate 0027                __stringbase 0805  
         ??_Lcd_Write_Char 0073                  main@joy_X 0056                  main@joy_Y 0058  
                main@mocua 0048                  main@xuong 004C                   _Lcd_Init 0C9F  
                 _Lcd_Port 0B9D   __end_of_Lcd_Write_String 0BE3           __size_of_Lcd_Cmd 001A  
         __size_of___aldiv 009D               pnum$maintext 000A         __end_of__stringtab 0806  
                 __ptext10 0B9D                   __ptext11 0BE3                   __ptext12 0B4D  
                 __ptext13 0B82              __size_of_main F97A                   main@phai 005C  
                 main@trai 0044                 _INTCONbits 000B         Lcd_Write_Char@temp 0074  
                 intlevel1 0000           ??_ADC_Initialize 0072                  stringcode 0800  
          main@trangthaim1 0050            main@trangthaim2 0052            main@trangthaim3 0054  
          main@trangthaim4 004E         Lcd_Set_Cursor@temp 0023                   stringdir 0800  
                 stringtab 0800               ___aldiv@sign 0022                 _UART_Write 07F1  
